
jos-1c38239ddf57df12.jos.4tri5g20-cgu.0.rcgu.o:
00000000 r .L__unnamed_2
00000000 t _ZN38_$LT$core..option..Option$LT$T$GT$$GT$3map17he4d23a71d0953da4E
00000000 t _ZN3jos12quick_return17hc5cfdf0e32af4aebE
00000000 r _ZN3jos8GREETING17haca400f267bdf179E
00000000 r _ZN3jos8TRUE_STR17hcb7422ad27a207a0E
00000000 r _ZN3jos9FALSE_STR17h797449b6891d1ef6E
00000000 t _ZN4core3mem7size_of17h7c58799083f3babaE
00000000 t _ZN4core3ptr31_$LT$impl$u20$$BP$mut$u20$T$GT$6offset17hd80c158e73445e2cE
00000000 t _ZN4core3ptr33_$LT$impl$u20$$BP$const$u20$T$GT$12wrapping_add17h57c448136da6edd6E
00000000 t _ZN4core3ptr33_$LT$impl$u20$$BP$const$u20$T$GT$15wrapping_offset17hb4302a897350b25fE
00000000 t _ZN4core3ptr33_$LT$impl$u20$$BP$const$u20$T$GT$3add17h4d06b65b24ddf4a7E
00000000 t _ZN4core3ptr33_$LT$impl$u20$$BP$const$u20$T$GT$6offset17h53035247db6399bbE
00000000 t _ZN4core3ptr33_$LT$impl$u20$$BP$const$u20$T$GT$7is_null17h16209fed5ae7004eE
00000000 t _ZN4core3ptr4null17h21ea2ef74392e66dE
00000000 t _ZN4core4iter8iterator8Iterator9enumerate17hd7c46af9e63f6155E
00000000 t _ZN4core5slice29_$LT$impl$u20$$u5b$T$u5d$$GT$3len17h6ef23fa1b8e57367E
00000000 t _ZN4core5slice29_$LT$impl$u20$$u5b$T$u5d$$GT$4iter17h36932053a9a1dd01E
00000000 t _ZN4core5slice29_$LT$impl$u20$$u5b$T$u5d$$GT$6as_ptr17hbd89ea692ba198e8E
00000000 t _ZN54_$LT$I$u20$as$u20$core..iter..traits..IntoIterator$GT$9into_iter17hce99cfa116828991E
00000000 t _ZN81_$LT$core..iter..Enumerate$LT$I$GT$$u20$as$u20$core..iter..iterator..Iterator$GT$4next17h7885f97b9c541ec4E
00000000 t _ZN81_$LT$core..iter..Enumerate$LT$I$GT$$u20$as$u20$core..iter..iterator..Iterator$GT$4next28_$u7b$$u7b$closure$u7d$$u7d$17hd59e1928aaa09e49E
00000000 t _ZN91_$LT$core..slice..Iter$LT$$u27$a$C$$u20$T$GT$$u20$as$u20$core..iter..iterator..Iterator$GT$4next17h5d0bbf1d47a97a86E
00000000 T _kmain
00000000 T abort

compiler_builtins-f5ff472cd7010299.compiler_builtins.eq9b4eau-cgu.0.rcgu.o:
         U _GLOBAL_OFFSET_TABLE_
         U _ZN4core3num21_$LT$impl$u20$i32$GT$12wrapping_add17h8a83867ed9955404E
         U _ZN4core3num21_$LT$impl$u20$i32$GT$9max_value17hdcf171284b3046b8E
         U _ZN4core3num21_$LT$impl$u20$i32$GT$9min_value17h6b59c41173cdbbefE
         U _ZN4core3num21_$LT$impl$u20$i64$GT$12wrapping_add17h8a899b52be193b8dE
         U _ZN4core3num21_$LT$impl$u20$i64$GT$9max_value17hbd9868e9efbc3155E
         U _ZN4core3num21_$LT$impl$u20$i64$GT$9min_value17h8e436202275f1a8fE
         U _ZN4core3num21_$LT$impl$u20$u32$GT$12wrapping_add17h98ea2ee4ee785327E
         U _ZN4core3num21_$LT$impl$u20$u32$GT$12wrapping_shl17heca854c4fa0fba53E
         U _ZN4core3num21_$LT$impl$u20$u32$GT$13leading_zeros17h938397eb22aa8e51E
         U _ZN4core3num21_$LT$impl$u20$u32$GT$9max_value17hf2f3c7ea034e0411E
         U _ZN4core3num21_$LT$impl$u20$u32$GT$9min_value17ha342cb6b78ac7ae1E
         U _ZN4core3num21_$LT$impl$u20$u64$GT$12wrapping_add17he6a95ba2a42002b8E
         U _ZN4core3num21_$LT$impl$u20$u64$GT$12wrapping_shl17hddfe6d5f449da5ceE
         U _ZN4core3num21_$LT$impl$u20$u64$GT$13leading_zeros17h39f42c9f391bd6e5E
         U _ZN4core3num21_$LT$impl$u20$u64$GT$9max_value17hfd974d533f760c91E
         U _ZN4core3num21_$LT$impl$u20$u64$GT$9min_value17h55af64204565c230E
         U _ZN4core3num22_$LT$impl$u20$i128$GT$12wrapping_add17hb97c250512cfb052E
         U _ZN4core3num22_$LT$impl$u20$i128$GT$9max_value17hf236399d178bec9dE
         U _ZN4core3num22_$LT$impl$u20$i128$GT$9min_value17hc08382d13126ffd5E
         U _ZN4core3num22_$LT$impl$u20$u128$GT$12wrapping_add17h61ae822081154054E
         U _ZN4core3num22_$LT$impl$u20$u128$GT$12wrapping_shl17h0af8a8f845568f90E
         U _ZN4core3num22_$LT$impl$u20$u128$GT$13leading_zeros17hbc790cf54f1d9129E
         U _ZN4core3num22_$LT$impl$u20$u128$GT$9max_value17h729188e480583799E
         U _ZN4core3num22_$LT$impl$u20$u128$GT$9min_value17heda195796109c87aE
         U _ZN51_$LT$i32$u20$as$u20$compiler_builtins..int..Int$GT$12extract_sign17hb34ef95a617099bbE
         U _ZN51_$LT$i64$u20$as$u20$compiler_builtins..int..Int$GT$12extract_sign17he56c34b173aa7217E
         U _ZN51_$LT$u32$u20$as$u20$compiler_builtins..int..Int$GT$12extract_sign17h11fbf43cbbcd9520E
         U _ZN51_$LT$u64$u20$as$u20$compiler_builtins..int..Int$GT$12extract_sign17h756ad229a97b3fecE
         U _ZN52_$LT$i128$u20$as$u20$compiler_builtins..int..Int$GT$12extract_sign17h6c82a97afa69dbeeE
         U _ZN52_$LT$u128$u20$as$u20$compiler_builtins..int..Int$GT$12extract_sign17h27da7f44d090f5abE
         U _ZN55_$LT$f32$u20$as$u20$compiler_builtins..float..Float$GT$10from_parts17h02448c68a5818d6dE
         U _ZN55_$LT$f32$u20$as$u20$compiler_builtins..float..Float$GT$4repr17h8f5ffbf6b0078abdE
         U _ZN55_$LT$f64$u20$as$u20$compiler_builtins..float..Float$GT$10from_parts17hc0c2063dd8c2a88eE
         U _ZN55_$LT$f64$u20$as$u20$compiler_builtins..float..Float$GT$4repr17h0758fb00ae3e2115E
00000000 t _ZN77_$LT$compiler_builtins..float..conv..Sign$u20$as$u20$core..cmp..PartialEq$GT$2eq17hf44dcc5bcdc14fa8E
00000000 T __fixdfdi
00000000 T __fixdfsi
00000000 T __fixdfti
00000000 T __fixsfdi
00000000 T __fixsfsi
00000000 T __fixsfti
00000000 T __fixunsdfdi
00000000 T __fixunsdfsi
00000000 T __fixunsdfti
00000000 T __fixunssfdi
00000000 T __fixunssfsi
00000000 T __fixunssfti
00000000 T __floatdidf
00000000 T __floatdisf
00000000 T __floatsidf
00000000 T __floatsisf
00000000 T __floattidf
00000000 T __floattisf
00000000 T __floatundidf
00000000 T __floatundisf
00000000 T __floatunsidf
00000000 T __floatunsisf
00000000 T __floatuntidf
00000000 T __floatuntisf

compiler_builtins-f5ff472cd7010299.compiler_builtins.eq9b4eau-cgu.1.rcgu.o:
         U _GLOBAL_OFFSET_TABLE_
00000000 t _ZN17compiler_builtins5float3add3add17h3c0b7b6554b0430aE
00000000 t _ZN17compiler_builtins5float3add3add17hc4fcdd8b634f967cE
         U _ZN43_$LT$u32$u20$as$u20$core..ops..bit..Shl$GT$3shl17h634ba576376b5bb5E
         U _ZN43_$LT$u32$u20$as$u20$core..ops..bit..Shr$GT$3shr17h03da365e85e90f46E
         U _ZN45_$LT$u32$u20$as$u20$core..ops..arith..Sub$GT$3sub17h9ca565dce5541067E
         U _ZN45_$LT$u32$u20$as$u20$core..ops..bit..BitOr$GT$5bitor17hc40cb5a44a2a7fb7E
         U _ZN45_$LT$u64$u20$as$u20$core..ops..arith..Sub$GT$3sub17h3a97c37b90d8418bE
         U _ZN45_$LT$u64$u20$as$u20$core..ops..bit..BitOr$GT$5bitor17h930540376ee8bfa1E
         U _ZN46_$LT$u32$u20$as$u20$core..ops..bit..BitAnd$GT$6bitand17h1773f5b7c3d72ad6E
         U _ZN46_$LT$u32$u20$as$u20$core..ops..bit..BitXor$GT$6bitxor17h6b2ca36f069acaa4E
         U _ZN46_$LT$u64$u20$as$u20$core..ops..bit..BitAnd$GT$6bitand17h40c9a4258b29d734E
         U _ZN46_$LT$u64$u20$as$u20$core..ops..bit..BitXor$GT$6bitxor17h44b363572c85d62dE
         U _ZN4core3cmp5impls54_$LT$impl$u20$core..cmp..PartialEq$u20$for$u20$u32$GT$2eq17h350742df64b83c1fE
         U _ZN4core3cmp5impls54_$LT$impl$u20$core..cmp..PartialEq$u20$for$u20$u32$GT$2ne17h0c4d640720225bffE
         U _ZN4core3cmp5impls54_$LT$impl$u20$core..cmp..PartialEq$u20$for$u20$u64$GT$2eq17hbacd82780d9a3b2aE
         U _ZN4core3cmp5impls54_$LT$impl$u20$core..cmp..PartialEq$u20$for$u20$u64$GT$2ne17h2615d7ccaad9f39dE
         U _ZN4core3cmp5impls55_$LT$impl$u20$core..cmp..PartialOrd$u20$for$u20$u32$GT$2ge17h5bf15486a498a1ebE
         U _ZN4core3cmp5impls55_$LT$impl$u20$core..cmp..PartialOrd$u20$for$u20$u32$GT$2gt17hbf41f2205478e0bfE
         U _ZN4core3cmp5impls55_$LT$impl$u20$core..cmp..PartialOrd$u20$for$u20$u32$GT$2lt17h5b84eab981e0d799E
         U _ZN4core3cmp5impls55_$LT$impl$u20$core..cmp..PartialOrd$u20$for$u20$u64$GT$2ge17h49adb901f09d82a6E
         U _ZN4core3cmp5impls55_$LT$impl$u20$core..cmp..PartialOrd$u20$for$u20$u64$GT$2gt17h5e3c82980d81afd5E
         U _ZN4core3cmp5impls55_$LT$impl$u20$core..cmp..PartialOrd$u20$for$u20$u64$GT$2lt17h456aeb5ced6f8734E
         U _ZN4core3num21_$LT$impl$u20$i32$GT$12wrapping_sub17hac938fb0d85988d4E
         U _ZN51_$LT$u32$u20$as$u20$compiler_builtins..int..Int$GT$12wrapping_sub17hfc416ec612820232E
         U _ZN51_$LT$u32$u20$as$u20$compiler_builtins..int..Int$GT$13leading_zeros17hd2e88d189d867f52E
         U _ZN51_$LT$u32$u20$as$u20$compiler_builtins..int..Int$GT$9from_bool17ha5c29ebb0e8b96cdE
         U _ZN51_$LT$u32$u20$as$u20$core..ops..arith..AddAssign$GT$10add_assign17h0d1b1a91fd547a44E
         U _ZN51_$LT$u32$u20$as$u20$core..ops..bit..BitOrAssign$GT$12bitor_assign17hdbb9d292be4118deE
         U _ZN51_$LT$u64$u20$as$u20$compiler_builtins..int..Int$GT$12wrapping_sub17h8037b4f2a5d9f1c2E
         U _ZN51_$LT$u64$u20$as$u20$compiler_builtins..int..Int$GT$13leading_zeros17h3111e9b05efcc7f0E
         U _ZN51_$LT$u64$u20$as$u20$compiler_builtins..int..Int$GT$9from_bool17h1d75c543bd4c9069E
         U _ZN51_$LT$u64$u20$as$u20$core..ops..arith..AddAssign$GT$10add_assign17h2cb2bfbb093d4345E
         U _ZN51_$LT$u64$u20$as$u20$core..ops..bit..BitOrAssign$GT$12bitor_assign17ha85fc9eeb1e563f4E
         U _ZN54_$LT$u64$u20$as$u20$core..ops..bit..Shl$LT$u32$GT$$GT$3shl17ha0f1f7c4d1b71c6fE
         U _ZN54_$LT$u64$u20$as$u20$core..ops..bit..Shr$LT$u32$GT$$GT$3shr17h86eb4bdcd62c3507E
         U _ZN55_$LT$f32$u20$as$u20$compiler_builtins..float..Float$GT$4repr17h8f5ffbf6b0078abdE
         U _ZN55_$LT$f32$u20$as$u20$compiler_builtins..float..Float$GT$9from_repr17ha1a3015a145c5e73E
         U _ZN55_$LT$f32$u20$as$u20$compiler_builtins..float..Float$GT$9normalize17h3b07022c817f6bf0E
         U _ZN55_$LT$f64$u20$as$u20$compiler_builtins..float..Float$GT$4repr17h0758fb00ae3e2115E
         U _ZN55_$LT$f64$u20$as$u20$compiler_builtins..float..Float$GT$9from_repr17h6e7c91fe7cbb7eecE
         U _ZN55_$LT$f64$u20$as$u20$compiler_builtins..float..Float$GT$9normalize17h71c414bb21f0351bE
         U _ZN60_$LT$u32$u20$as$u20$core..ops..bit..ShlAssign$LT$i32$GT$$GT$10shl_assign17h28a92a73863bf5e3E
         U _ZN60_$LT$u64$u20$as$u20$core..ops..bit..ShlAssign$LT$i32$GT$$GT$10shl_assign17hb1caca6ea2049662E
         U _ZN67_$LT$i32$u20$as$u20$compiler_builtins..int..CastInto$LT$u32$GT$$GT$4cast17h1a9ddc161d6f5a2dE
         U _ZN67_$LT$i32$u20$as$u20$compiler_builtins..int..CastInto$LT$u64$GT$$GT$4cast17h1d575389270f9848E
         U _ZN67_$LT$u32$u20$as$u20$compiler_builtins..int..CastInto$LT$i32$GT$$GT$4cast17h432e5905f96e2733E
         U _ZN67_$LT$u32$u20$as$u20$compiler_builtins..int..CastInto$LT$u32$GT$$GT$4cast17h143e8637064b7490E
         U _ZN67_$LT$u32$u20$as$u20$compiler_builtins..int..CastInto$LT$u64$GT$$GT$4cast17h20cf968f480ff57bE
         U _ZN67_$LT$u64$u20$as$u20$compiler_builtins..int..CastInto$LT$i32$GT$$GT$4cast17he77b25eee3967605E
         U _ZN67_$LT$u64$u20$as$u20$compiler_builtins..int..CastInto$LT$u32$GT$$GT$4cast17h54b8c8bf30ed96a9E
00000000 T __adddf3
00000000 T __addsf3

compiler_builtins-f5ff472cd7010299.compiler_builtins.eq9b4eau-cgu.10.rcgu.o:
         U _GLOBAL_OFFSET_TABLE_
00000000 t _ZN17compiler_builtins3int4sdiv11__divmoddi428_$u7b$$u7b$closure$u7d$$u7d$17hd960b4459b4cfe22E
00000000 t _ZN17compiler_builtins3int4sdiv11__divmodsi428_$u7b$$u7b$closure$u7d$$u7d$17hb26b5bc1491f5838E
00000000 T _ZN17compiler_builtins3int4sdiv13rust_i128_div17h3164c15900b21d12E
00000000 T _ZN17compiler_builtins3int4sdiv13rust_i128_rem17h766a5d3cf952dc59E
00000000 T _ZN17compiler_builtins3int4sdiv3Div3div17h097fa141e12e3944E
00000000 T _ZN17compiler_builtins3int4sdiv3Div3div17h292fd8feabd054c6E
00000000 T _ZN17compiler_builtins3int4sdiv3Div3div17h90c5bc400a758468E
00000000 T _ZN17compiler_builtins3int4sdiv3Mod4mod_17h129902d8f5117196E
00000000 T _ZN17compiler_builtins3int4sdiv3Mod4mod_17h1783ea247237f502E
00000000 T _ZN17compiler_builtins3int4sdiv3Mod4mod_17h8a205dc9e256d618E
00000000 T _ZN17compiler_builtins3int4sdiv6Divmod6divmod17h509dd982e6bb2f44E
00000000 T _ZN17compiler_builtins3int4sdiv6Divmod6divmod17had6e181085414eb7E
         U _ZN45_$LT$i32$u20$as$u20$core..ops..arith..Sub$GT$3sub17h2a1f954666c04c84E
         U _ZN45_$LT$i64$u20$as$u20$core..ops..arith..Sub$GT$3sub17hc1e824b60e7b2b4fE
         U _ZN46_$LT$i128$u20$as$u20$core..ops..arith..Sub$GT$3sub17h657b1b2b41b30386E
         U _ZN46_$LT$i32$u20$as$u20$core..ops..bit..BitXor$GT$6bitxor17h3c47a13e8c804bafE
         U _ZN46_$LT$i64$u20$as$u20$core..ops..bit..BitXor$GT$6bitxor17ha6b3b23294659de1E
         U _ZN47_$LT$i128$u20$as$u20$core..ops..bit..BitXor$GT$6bitxor17hfda060bc6ab1a14aE
         U _ZN51_$LT$i32$u20$as$u20$compiler_builtins..int..Int$GT$12wrapping_mul17h4347188585f1f241E
         U _ZN51_$LT$i32$u20$as$u20$compiler_builtins..int..Int$GT$12wrapping_sub17hda4700216ae74772E
         U _ZN51_$LT$i32$u20$as$u20$compiler_builtins..int..Int$GT$13from_unsigned17h2f89db64efeda5e2E
         U _ZN51_$LT$i32$u20$as$u20$compiler_builtins..int..Int$GT$8unsigned17h646b945df174b49aE
         U _ZN51_$LT$i64$u20$as$u20$compiler_builtins..int..Int$GT$12wrapping_mul17h1ef9e6b23c3e7b16E
         U _ZN51_$LT$i64$u20$as$u20$compiler_builtins..int..Int$GT$12wrapping_sub17h45be455285926f80E
         U _ZN51_$LT$i64$u20$as$u20$compiler_builtins..int..Int$GT$13from_unsigned17hffc71adb386b4eccE
         U _ZN51_$LT$i64$u20$as$u20$compiler_builtins..int..Int$GT$8unsigned17h262c2b0f0bfc217dE
         U _ZN51_$LT$u32$u20$as$u20$compiler_builtins..int..Int$GT$12aborting_div17hb723151a42030af6E
         U _ZN51_$LT$u32$u20$as$u20$compiler_builtins..int..Int$GT$12aborting_rem17h898fdd4aebef3639E
         U _ZN51_$LT$u64$u20$as$u20$compiler_builtins..int..Int$GT$12aborting_div17h5613bc762dc0d750E
         U _ZN51_$LT$u64$u20$as$u20$compiler_builtins..int..Int$GT$12aborting_rem17he02781a4b423c13aE
         U _ZN52_$LT$i128$u20$as$u20$compiler_builtins..int..Int$GT$12wrapping_sub17h8a4b169967f3b2d9E
         U _ZN52_$LT$i128$u20$as$u20$compiler_builtins..int..Int$GT$13from_unsigned17h1832996436ba572dE
         U _ZN52_$LT$i128$u20$as$u20$compiler_builtins..int..Int$GT$8unsigned17ha71c16c8f15a84d0E
         U _ZN52_$LT$u128$u20$as$u20$compiler_builtins..int..Int$GT$12aborting_div17h56bb4b522bfbff15E
         U _ZN52_$LT$u128$u20$as$u20$compiler_builtins..int..Int$GT$12aborting_rem17ha1ee4742639deaeaE
         U _ZN54_$LT$i32$u20$as$u20$core..ops..bit..Shr$LT$u32$GT$$GT$3shr17hd21a430ff92eba90E
         U _ZN54_$LT$i64$u20$as$u20$core..ops..bit..Shr$LT$u32$GT$$GT$3shr17h6071a342c1a33f50E
         U _ZN55_$LT$i128$u20$as$u20$core..ops..bit..Shr$LT$u32$GT$$GT$3shr17hda6b45576d78d67cE
00000000 T __divdi3
00000000 T __divmoddi4
00000000 T __divmodsi4
00000000 T __divsi3
00000000 T __divti3
00000000 T __moddi3
00000000 T __modsi3
00000000 T __modti3

compiler_builtins-f5ff472cd7010299.compiler_builtins.eq9b4eau-cgu.11.rcgu.o:
         U _GLOBAL_OFFSET_TABLE_
00000000 T _ZN17compiler_builtins3int6addsub13rust_i128_add17h9fc3c9d8642c113dE
00000000 T _ZN17compiler_builtins3int6addsub13rust_i128_sub17h011d7715a2725e5eE
00000000 T _ZN17compiler_builtins3int6addsub13rust_u128_add17h7e9e1bf07fcc5f9cE
00000000 T _ZN17compiler_builtins3int6addsub13rust_u128_sub17haf094595243cf61cE
00000000 T _ZN17compiler_builtins3int6addsub14rust_i128_addo17h7519f82fea246909E
00000000 T _ZN17compiler_builtins3int6addsub14rust_i128_subo17h14322590168bb646E
00000000 T _ZN17compiler_builtins3int6addsub14rust_u128_addo17he196ef514607ec97E
00000000 T _ZN17compiler_builtins3int6addsub14rust_u128_subo17hb60b8cc969b36d94E
00000000 T _ZN17compiler_builtins3int6addsub4Addo4addo17hd04f90a556228fcbE
00000000 T _ZN17compiler_builtins3int6addsub4Addo4addo17hd24a60e16aec304bE
00000000 T _ZN17compiler_builtins3int6addsub4Subo4subo17h70ff47c676cac920E
00000000 T _ZN17compiler_builtins3int6addsub4Subo4subo17hffd3422c252ab060E
00000000 T _ZN17compiler_builtins3int6addsub6AddSub3add17h593943960a020bdcE
00000000 T _ZN17compiler_builtins3int6addsub6AddSub3add17h95ff92b7e2ed5289E
00000000 T _ZN17compiler_builtins3int6addsub6AddSub3sub17hbce098bf6d77f0aaE
00000000 T _ZN17compiler_builtins3int6addsub6AddSub3sub17hfdfb58a2c2303c71E
00000000 T _ZN17compiler_builtins3int6addsub7UAddSub4uadd17hc7caf5464a22ee83E
00000000 T _ZN17compiler_builtins3int6addsub7UAddSub4usub17h294a555e4e2ced37E
00000000 T _ZN17compiler_builtins3int6addsub7UAddSub8uadd_one17h18b19fbee8d8748eE
         U _ZN44_$LT$u128$u20$as$u20$core..ops..bit..Not$GT$3not17h955adf000f60c782E
         U _ZN4core3cmp5impls56_$LT$impl$u20$core..cmp..PartialOrd$u20$for$u20$i128$GT$2ge17ha2e738707da29b92E
         U _ZN4core3cmp5impls56_$LT$impl$u20$core..cmp..PartialOrd$u20$for$u20$i128$GT$2gt17hcfbd28cc948fff14E
         U _ZN4core3cmp5impls56_$LT$impl$u20$core..cmp..PartialOrd$u20$for$u20$i128$GT$2le17h03e984cf8fe94774E
         U _ZN4core3cmp5impls56_$LT$impl$u20$core..cmp..PartialOrd$u20$for$u20$i128$GT$2lt17hc8e232ff0e68f5caE
         U _ZN4core3cmp5impls56_$LT$impl$u20$core..cmp..PartialOrd$u20$for$u20$u128$GT$2ge17h07df658978d882d2E
         U _ZN4core3cmp5impls56_$LT$impl$u20$core..cmp..PartialOrd$u20$for$u20$u128$GT$2gt17h1ccea757b7f2252cE
         U _ZN4core3cmp5impls56_$LT$impl$u20$core..cmp..PartialOrd$u20$for$u20$u128$GT$2le17hf815f0b020a15935E
         U _ZN4core3cmp5impls56_$LT$impl$u20$core..cmp..PartialOrd$u20$for$u20$u128$GT$2lt17hada7c4fe0ec3df33E
         U _ZN51_$LT$u64$u20$as$u20$compiler_builtins..int..Int$GT$12wrapping_add17h7dfa8a826cb536a3E
         U _ZN51_$LT$u64$u20$as$u20$compiler_builtins..int..Int$GT$15overflowing_add17hf0ff37e016137dbcE
         U _ZN52_$LT$i128$u20$as$u20$compiler_builtins..int..Int$GT$13from_unsigned17h1832996436ba572dE
         U _ZN52_$LT$i128$u20$as$u20$compiler_builtins..int..Int$GT$8unsigned17ha71c16c8f15a84d0E
         U _ZN52_$LT$u128$u20$as$u20$compiler_builtins..int..Int$GT$13from_unsigned17hc99acfdd18dde611E
         U _ZN52_$LT$u128$u20$as$u20$compiler_builtins..int..Int$GT$8unsigned17hdaca93f3aa743f9aE
         U _ZN57_$LT$u128$u20$as$u20$compiler_builtins..int..LargeInt$GT$10from_parts17h4897306acc977ceaE
         U _ZN57_$LT$u128$u20$as$u20$compiler_builtins..int..LargeInt$GT$3low17h1f0f924b7197fa5dE
         U _ZN57_$LT$u128$u20$as$u20$compiler_builtins..int..LargeInt$GT$4high17h566f29a48d37f5d8E

compiler_builtins-f5ff472cd7010299.compiler_builtins.eq9b4eau-cgu.12.rcgu.o:
         U _GLOBAL_OFFSET_TABLE_
00000000 T _ZN43_$LT$u32$u20$as$u20$core..ops..bit..Not$GT$3not17h52f3156e0d162c3cE
00000000 T _ZN43_$LT$u32$u20$as$u20$core..ops..bit..Shl$GT$3shl17h634ba576376b5bb5E
00000000 T _ZN43_$LT$u32$u20$as$u20$core..ops..bit..Shr$GT$3shr17h03da365e85e90f46E
00000000 T _ZN43_$LT$u64$u20$as$u20$core..ops..bit..Not$GT$3not17h8b13b86b8de8a7c9E
00000000 T _ZN44_$LT$u128$u20$as$u20$core..ops..bit..Not$GT$3not17h955adf000f60c782E
00000000 T _ZN45_$LT$u32$u20$as$u20$core..ops..bit..BitOr$GT$5bitor17hc40cb5a44a2a7fb7E
00000000 T _ZN45_$LT$u64$u20$as$u20$core..ops..bit..BitOr$GT$5bitor17h930540376ee8bfa1E
00000000 T _ZN46_$LT$i32$u20$as$u20$core..ops..bit..BitAnd$GT$6bitand17h995e0283f01c209fE
00000000 T _ZN46_$LT$i32$u20$as$u20$core..ops..bit..BitXor$GT$6bitxor17h3c47a13e8c804bafE
00000000 T _ZN46_$LT$i64$u20$as$u20$core..ops..bit..BitAnd$GT$6bitand17h250509f5f858409dE
00000000 T _ZN46_$LT$i64$u20$as$u20$core..ops..bit..BitXor$GT$6bitxor17ha6b3b23294659de1E
00000000 T _ZN46_$LT$u32$u20$as$u20$core..ops..bit..BitAnd$GT$6bitand17h1773f5b7c3d72ad6E
00000000 T _ZN46_$LT$u32$u20$as$u20$core..ops..bit..BitXor$GT$6bitxor17h6b2ca36f069acaa4E
00000000 T _ZN46_$LT$u64$u20$as$u20$core..ops..bit..BitAnd$GT$6bitand17h40c9a4258b29d734E
00000000 T _ZN46_$LT$u64$u20$as$u20$core..ops..bit..BitXor$GT$6bitxor17h44b363572c85d62dE
00000000 T _ZN47_$LT$i128$u20$as$u20$core..ops..bit..BitXor$GT$6bitxor17hfda060bc6ab1a14aE
00000000 T _ZN49_$LT$u32$u20$as$u20$core..ops..bit..ShrAssign$GT$10shr_assign17hc628efe76d0da821E
         U _ZN4core3num21_$LT$impl$u20$i32$GT$12wrapping_sub17hac938fb0d85988d4E
         U _ZN4core3num21_$LT$impl$u20$u32$GT$12wrapping_sub17h585e80f4bf5adf4dE
         U _ZN4core3num21_$LT$impl$u20$u32$GT$13leading_zeros17h938397eb22aa8e51E
         U _ZN4core3num21_$LT$impl$u20$u64$GT$13leading_zeros17h39f42c9f391bd6e5E
00000000 T _ZN51_$LT$u32$u20$as$u20$core..ops..bit..BitOrAssign$GT$12bitor_assign17hdbb9d292be4118deE
00000000 T _ZN51_$LT$u64$u20$as$u20$core..ops..bit..BitOrAssign$GT$12bitor_assign17ha85fc9eeb1e563f4E
00000000 T _ZN52_$LT$u32$u20$as$u20$core..ops..bit..BitAndAssign$GT$13bitand_assign17h2c7feccb473eb767E
00000000 T _ZN52_$LT$u64$u20$as$u20$core..ops..bit..BitAndAssign$GT$13bitand_assign17hfd81b8b11869e611E
00000000 T _ZN54_$LT$i32$u20$as$u20$core..ops..bit..Shr$LT$u32$GT$$GT$3shr17hd21a430ff92eba90E
00000000 T _ZN54_$LT$i64$u20$as$u20$core..ops..bit..Shr$LT$u32$GT$$GT$3shr17h6071a342c1a33f50E
00000000 T _ZN54_$LT$u64$u20$as$u20$core..ops..bit..Shl$LT$u32$GT$$GT$3shl17ha0f1f7c4d1b71c6fE
00000000 T _ZN54_$LT$u64$u20$as$u20$core..ops..bit..Shr$LT$u32$GT$$GT$3shr17h86eb4bdcd62c3507E
00000000 T _ZN55_$LT$f32$u20$as$u20$compiler_builtins..float..Float$GT$10from_parts17h02448c68a5818d6dE
00000000 T _ZN55_$LT$f32$u20$as$u20$compiler_builtins..float..Float$GT$11signed_repr17h04584599f6b56fb2E
00000000 T _ZN55_$LT$f32$u20$as$u20$compiler_builtins..float..Float$GT$4repr17h8f5ffbf6b0078abdE
00000000 T _ZN55_$LT$f32$u20$as$u20$compiler_builtins..float..Float$GT$9from_repr17ha1a3015a145c5e73E
00000000 T _ZN55_$LT$f32$u20$as$u20$compiler_builtins..float..Float$GT$9normalize17h3b07022c817f6bf0E
00000000 T _ZN55_$LT$f64$u20$as$u20$compiler_builtins..float..Float$GT$10from_parts17hc0c2063dd8c2a88eE
00000000 T _ZN55_$LT$f64$u20$as$u20$compiler_builtins..float..Float$GT$11signed_repr17hede7e7c19ee92db1E
00000000 T _ZN55_$LT$f64$u20$as$u20$compiler_builtins..float..Float$GT$4repr17h0758fb00ae3e2115E
00000000 T _ZN55_$LT$f64$u20$as$u20$compiler_builtins..float..Float$GT$9from_repr17h6e7c91fe7cbb7eecE
00000000 T _ZN55_$LT$f64$u20$as$u20$compiler_builtins..float..Float$GT$9normalize17h71c414bb21f0351bE
00000000 T _ZN55_$LT$i128$u20$as$u20$core..ops..bit..Shr$LT$u32$GT$$GT$3shr17hda6b45576d78d67cE
00000000 T _ZN60_$LT$u32$u20$as$u20$core..ops..bit..ShlAssign$LT$i32$GT$$GT$10shl_assign17h28a92a73863bf5e3E
00000000 T _ZN60_$LT$u64$u20$as$u20$core..ops..bit..ShlAssign$LT$i32$GT$$GT$10shl_assign17hb1caca6ea2049662E
00000000 T _ZN60_$LT$u64$u20$as$u20$core..ops..bit..ShrAssign$LT$u32$GT$$GT$10shr_assign17h55f4020ad23dfaecE

compiler_builtins-f5ff472cd7010299.compiler_builtins.eq9b4eau-cgu.13.rcgu.o:
         U _GLOBAL_OFFSET_TABLE_
00000000 t _ZN17compiler_builtins5float6extend6extend17h7cca2922fa2a64cdE
         U _ZN45_$LT$u32$u20$as$u20$core..ops..arith..Sub$GT$3sub17h9ca565dce5541067E
         U _ZN45_$LT$u64$u20$as$u20$core..ops..bit..BitOr$GT$5bitor17h930540376ee8bfa1E
         U _ZN46_$LT$u32$u20$as$u20$core..ops..bit..BitAnd$GT$6bitand17h1773f5b7c3d72ad6E
         U _ZN46_$LT$u64$u20$as$u20$core..ops..bit..BitXor$GT$6bitxor17h44b363572c85d62dE
         U _ZN4core3cmp5impls54_$LT$impl$u20$core..cmp..PartialEq$u20$for$u20$u32$GT$2ne17h0c4d640720225bffE
         U _ZN4core3cmp5impls55_$LT$impl$u20$core..cmp..PartialOrd$u20$for$u20$u32$GT$2ge17h5bf15486a498a1ebE
         U _ZN4core3cmp5impls55_$LT$impl$u20$core..cmp..PartialOrd$u20$for$u20$u32$GT$2lt17h5b84eab981e0d799E
         U _ZN51_$LT$u32$u20$as$u20$compiler_builtins..int..Int$GT$12wrapping_sub17hfc416ec612820232E
         U _ZN51_$LT$u32$u20$as$u20$compiler_builtins..int..Int$GT$13leading_zeros17hd2e88d189d867f52E
         U _ZN51_$LT$u64$u20$as$u20$compiler_builtins..int..Int$GT$12wrapping_shl17h5e176d8bf532d064E
         U _ZN51_$LT$u64$u20$as$u20$core..ops..arith..AddAssign$GT$10add_assign17h2cb2bfbb093d4345E
         U _ZN51_$LT$u64$u20$as$u20$core..ops..bit..BitOrAssign$GT$12bitor_assign17ha85fc9eeb1e563f4E
         U _ZN55_$LT$f32$u20$as$u20$compiler_builtins..float..Float$GT$4repr17h8f5ffbf6b0078abdE
         U _ZN55_$LT$f64$u20$as$u20$compiler_builtins..float..Float$GT$9from_repr17h6e7c91fe7cbb7eecE
         U _ZN67_$LT$u32$u20$as$u20$compiler_builtins..int..CastInto$LT$u64$GT$$GT$4cast17h20cf968f480ff57bE
00000000 T __extendsfdf2

compiler_builtins-f5ff472cd7010299.compiler_builtins.eq9b4eau-cgu.14.rcgu.o:
00000000 r .LCPI19_0
00000000 r .LCPI20_0
         U _GLOBAL_OFFSET_TABLE_
00000000 T _ZN17compiler_builtins5abort17h0d9c37a13e10135bE
00000000 T _ZN17compiler_builtins5float3pow3Pow3pow17h0ba1902839ca4822E
00000000 T _ZN17compiler_builtins5float3pow3Pow3pow17h63724813d6e86f91E
00000000 t _ZN45_$LT$f32$u20$as$u20$core..ops..arith..Div$GT$3div17h32ef064a62df1b2dE
00000000 t _ZN45_$LT$f64$u20$as$u20$core..ops..arith..Div$GT$3div17hb59dcd67a25acb2dE
00000000 T _ZN45_$LT$i32$u20$as$u20$core..ops..arith..Add$GT$3add17h6055fbbcf44dddffE
00000000 T _ZN45_$LT$i32$u20$as$u20$core..ops..arith..Neg$GT$3neg17hd69329815007aa29E
00000000 T _ZN45_$LT$i32$u20$as$u20$core..ops..arith..Sub$GT$3sub17h2a1f954666c04c84E
00000000 T _ZN45_$LT$i64$u20$as$u20$core..ops..arith..Add$GT$3add17hc01528f8f5e8dc72E
00000000 T _ZN45_$LT$i64$u20$as$u20$core..ops..arith..Neg$GT$3neg17h2d0458fc8cea3312E
00000000 T _ZN45_$LT$i64$u20$as$u20$core..ops..arith..Sub$GT$3sub17hc1e824b60e7b2b4fE
00000000 T _ZN45_$LT$u32$u20$as$u20$core..ops..arith..Sub$GT$3sub17h9ca565dce5541067E
00000000 T _ZN45_$LT$u64$u20$as$u20$core..ops..arith..Sub$GT$3sub17h3a97c37b90d8418bE
00000000 T _ZN46_$LT$i128$u20$as$u20$core..ops..arith..Add$GT$3add17hd54fb285f29c2141E
00000000 T _ZN46_$LT$i128$u20$as$u20$core..ops..arith..Neg$GT$3neg17h253252a7e13ccab9E
00000000 T _ZN46_$LT$i128$u20$as$u20$core..ops..arith..Sub$GT$3sub17h657b1b2b41b30386E
00000000 t _ZN51_$LT$f32$u20$as$u20$core..ops..arith..MulAssign$GT$10mul_assign17hb3873b99cf00ae01E
00000000 t _ZN51_$LT$f64$u20$as$u20$core..ops..arith..MulAssign$GT$10mul_assign17hc8f78b2dd830d2b5E
         U _ZN51_$LT$i32$u20$as$u20$compiler_builtins..int..Int$GT$12aborting_div17h75763ac1ed74dbc1E
00000000 T _ZN51_$LT$i64$u20$as$u20$core..ops..arith..AddAssign$GT$10add_assign17hac6532cfe279d652E
00000000 T _ZN51_$LT$u32$u20$as$u20$core..ops..arith..AddAssign$GT$10add_assign17h0d1b1a91fd547a44E
00000000 T _ZN51_$LT$u64$u20$as$u20$core..ops..arith..AddAssign$GT$10add_assign17h2cb2bfbb093d4345E
         U _ZN55_$LT$f32$u20$as$u20$compiler_builtins..float..Float$GT$4repr17h8f5ffbf6b0078abdE
         U _ZN55_$LT$f32$u20$as$u20$compiler_builtins..float..Float$GT$9from_repr17ha1a3015a145c5e73E
         U _ZN55_$LT$f64$u20$as$u20$compiler_builtins..float..Float$GT$4repr17h0758fb00ae3e2115E
         U _ZN55_$LT$f64$u20$as$u20$compiler_builtins..float..Float$GT$9from_repr17h6e7c91fe7cbb7eecE
         U __adddf3
         U __addsf3
00000000 T __powidf2
00000000 T __powisf2
00000000 T __rust_probestack
00000000 T __subdf3
00000000 T __subsf3

compiler_builtins-f5ff472cd7010299.compiler_builtins.eq9b4eau-cgu.15.rcgu.o:
         U _GLOBAL_OFFSET_TABLE_
00000000 T _ZN4core3cmp5impls54_$LT$impl$u20$core..cmp..PartialEq$u20$for$u20$i32$GT$2eq17h62a7037da7b0bb17E
00000000 T _ZN4core3cmp5impls54_$LT$impl$u20$core..cmp..PartialEq$u20$for$u20$i32$GT$2ne17hd06fa750a5116812E
00000000 T _ZN4core3cmp5impls54_$LT$impl$u20$core..cmp..PartialEq$u20$for$u20$i64$GT$2eq17h5232208d8bbc2a83E
00000000 T _ZN4core3cmp5impls54_$LT$impl$u20$core..cmp..PartialEq$u20$for$u20$i64$GT$2ne17h559df1a184ae7606E
00000000 T _ZN4core3cmp5impls54_$LT$impl$u20$core..cmp..PartialEq$u20$for$u20$u32$GT$2eq17h350742df64b83c1fE
00000000 T _ZN4core3cmp5impls54_$LT$impl$u20$core..cmp..PartialEq$u20$for$u20$u32$GT$2ne17h0c4d640720225bffE
00000000 T _ZN4core3cmp5impls54_$LT$impl$u20$core..cmp..PartialEq$u20$for$u20$u64$GT$2eq17hbacd82780d9a3b2aE
00000000 T _ZN4core3cmp5impls54_$LT$impl$u20$core..cmp..PartialEq$u20$for$u20$u64$GT$2ne17h2615d7ccaad9f39dE
00000000 T _ZN4core3cmp5impls55_$LT$impl$u20$core..cmp..PartialEq$u20$for$u20$i128$GT$2eq17ha3deb4f2ed4baf5fE
00000000 T _ZN4core3cmp5impls55_$LT$impl$u20$core..cmp..PartialEq$u20$for$u20$i128$GT$2ne17hea24dd997068ad60E
00000000 T _ZN4core3cmp5impls55_$LT$impl$u20$core..cmp..PartialOrd$u20$for$u20$i32$GT$2ge17h46afd6d42dadc147E
00000000 T _ZN4core3cmp5impls55_$LT$impl$u20$core..cmp..PartialOrd$u20$for$u20$i32$GT$2gt17he25fbdfc8af7cf57E
00000000 T _ZN4core3cmp5impls55_$LT$impl$u20$core..cmp..PartialOrd$u20$for$u20$i32$GT$2lt17h5fe5f03b2047f092E
00000000 T _ZN4core3cmp5impls55_$LT$impl$u20$core..cmp..PartialOrd$u20$for$u20$i64$GT$2ge17ha56dcae903c33118E
00000000 T _ZN4core3cmp5impls55_$LT$impl$u20$core..cmp..PartialOrd$u20$for$u20$i64$GT$2gt17h7bfce0d7b8f2996bE
00000000 T _ZN4core3cmp5impls55_$LT$impl$u20$core..cmp..PartialOrd$u20$for$u20$i64$GT$2lt17ha467e06c5eb623caE
00000000 T _ZN4core3cmp5impls55_$LT$impl$u20$core..cmp..PartialOrd$u20$for$u20$u32$GT$2ge17h5bf15486a498a1ebE
00000000 T _ZN4core3cmp5impls55_$LT$impl$u20$core..cmp..PartialOrd$u20$for$u20$u32$GT$2gt17hbf41f2205478e0bfE
00000000 T _ZN4core3cmp5impls55_$LT$impl$u20$core..cmp..PartialOrd$u20$for$u20$u32$GT$2lt17h5b84eab981e0d799E
00000000 T _ZN4core3cmp5impls55_$LT$impl$u20$core..cmp..PartialOrd$u20$for$u20$u64$GT$2ge17h49adb901f09d82a6E
00000000 T _ZN4core3cmp5impls55_$LT$impl$u20$core..cmp..PartialOrd$u20$for$u20$u64$GT$2gt17h5e3c82980d81afd5E
00000000 T _ZN4core3cmp5impls55_$LT$impl$u20$core..cmp..PartialOrd$u20$for$u20$u64$GT$2lt17h456aeb5ced6f8734E
00000000 T _ZN4core3cmp5impls56_$LT$impl$u20$core..cmp..PartialOrd$u20$for$u20$i128$GT$2ge17ha2e738707da29b92E
00000000 T _ZN4core3cmp5impls56_$LT$impl$u20$core..cmp..PartialOrd$u20$for$u20$i128$GT$2gt17hcfbd28cc948fff14E
00000000 T _ZN4core3cmp5impls56_$LT$impl$u20$core..cmp..PartialOrd$u20$for$u20$i128$GT$2le17h03e984cf8fe94774E
00000000 T _ZN4core3cmp5impls56_$LT$impl$u20$core..cmp..PartialOrd$u20$for$u20$i128$GT$2lt17hc8e232ff0e68f5caE
00000000 T _ZN4core3cmp5impls56_$LT$impl$u20$core..cmp..PartialOrd$u20$for$u20$u128$GT$2ge17h07df658978d882d2E
00000000 T _ZN4core3cmp5impls56_$LT$impl$u20$core..cmp..PartialOrd$u20$for$u20$u128$GT$2gt17h1ccea757b7f2252cE
00000000 T _ZN4core3cmp5impls56_$LT$impl$u20$core..cmp..PartialOrd$u20$for$u20$u128$GT$2le17hf815f0b020a15935E
00000000 T _ZN4core3cmp5impls56_$LT$impl$u20$core..cmp..PartialOrd$u20$for$u20$u128$GT$2lt17hada7c4fe0ec3df33E
         U _ZN4core3ptr31_$LT$impl$u20$$BP$mut$u20$T$GT$6offset17hd80c158e73445e2cE
         U _ZN4core3ptr33_$LT$impl$u20$$BP$const$u20$T$GT$6offset17h53035247db6399bbE
00000000 T memcmp
00000000 T memcpy
00000000 T memmove
00000000 T memset

compiler_builtins-f5ff472cd7010299.compiler_builtins.eq9b4eau-cgu.2.rcgu.o:
         U _GLOBAL_OFFSET_TABLE_
00000000 t _ZN17compiler_builtins5float3div5div3217h9b1e3f28a3395e6dE
00000000 t _ZN17compiler_builtins5float3div5div6417hacf7948a6ada101dE
         U _ZN43_$LT$u32$u20$as$u20$core..ops..bit..Shl$GT$3shl17h634ba576376b5bb5E
         U _ZN43_$LT$u32$u20$as$u20$core..ops..bit..Shr$GT$3shr17h03da365e85e90f46E
         U _ZN45_$LT$u32$u20$as$u20$core..ops..arith..Sub$GT$3sub17h9ca565dce5541067E
         U _ZN45_$LT$u32$u20$as$u20$core..ops..bit..BitOr$GT$5bitor17hc40cb5a44a2a7fb7E
         U _ZN45_$LT$u64$u20$as$u20$core..ops..arith..Sub$GT$3sub17h3a97c37b90d8418bE
         U _ZN45_$LT$u64$u20$as$u20$core..ops..bit..BitOr$GT$5bitor17h930540376ee8bfa1E
         U _ZN46_$LT$u32$u20$as$u20$core..ops..bit..BitAnd$GT$6bitand17h1773f5b7c3d72ad6E
         U _ZN46_$LT$u32$u20$as$u20$core..ops..bit..BitXor$GT$6bitxor17h6b2ca36f069acaa4E
         U _ZN46_$LT$u64$u20$as$u20$core..ops..bit..BitAnd$GT$6bitand17h40c9a4258b29d734E
         U _ZN46_$LT$u64$u20$as$u20$core..ops..bit..BitXor$GT$6bitxor17h44b363572c85d62dE
         U _ZN49_$LT$u32$u20$as$u20$core..ops..bit..ShrAssign$GT$10shr_assign17hc628efe76d0da821E
         U _ZN4core3cmp5impls54_$LT$impl$u20$core..cmp..PartialEq$u20$for$u20$u32$GT$2eq17h350742df64b83c1fE
         U _ZN4core3cmp5impls54_$LT$impl$u20$core..cmp..PartialEq$u20$for$u20$u64$GT$2eq17hbacd82780d9a3b2aE
         U _ZN4core3cmp5impls55_$LT$impl$u20$core..cmp..PartialOrd$u20$for$u20$u32$GT$2ge17h5bf15486a498a1ebE
         U _ZN4core3cmp5impls55_$LT$impl$u20$core..cmp..PartialOrd$u20$for$u20$u32$GT$2gt17hbf41f2205478e0bfE
         U _ZN4core3cmp5impls55_$LT$impl$u20$core..cmp..PartialOrd$u20$for$u20$u32$GT$2lt17h5b84eab981e0d799E
         U _ZN4core3cmp5impls55_$LT$impl$u20$core..cmp..PartialOrd$u20$for$u20$u64$GT$2ge17h49adb901f09d82a6E
         U _ZN4core3cmp5impls55_$LT$impl$u20$core..cmp..PartialOrd$u20$for$u20$u64$GT$2gt17h5e3c82980d81afd5E
         U _ZN4core3cmp5impls55_$LT$impl$u20$core..cmp..PartialOrd$u20$for$u20$u64$GT$2lt17h456aeb5ced6f8734E
         U _ZN4core3num21_$LT$impl$u20$i32$GT$12wrapping_add17h8a83867ed9955404E
         U _ZN4core3num21_$LT$impl$u20$i32$GT$12wrapping_neg17h723e9eec2f8bb73aE
         U _ZN4core3num21_$LT$impl$u20$i32$GT$12wrapping_sub17hac938fb0d85988d4E
         U _ZN4core3num21_$LT$impl$u20$i64$GT$12wrapping_neg17h1621258e0766e48fE
         U _ZN4core3num21_$LT$impl$u20$u32$GT$12wrapping_sub17h585e80f4bf5adf4dE
         U _ZN4core3num21_$LT$impl$u20$u64$GT$12wrapping_add17he6a95ba2a42002b8E
         U _ZN4core3num21_$LT$impl$u20$u64$GT$12wrapping_mul17ha18a44789c066a74E
         U _ZN4core3num21_$LT$impl$u20$u64$GT$12wrapping_sub17hc1471035f96d6b64E
         U _ZN51_$LT$u32$u20$as$u20$compiler_builtins..int..Int$GT$12wrapping_add17h71d49edaa6089aa9E
         U _ZN51_$LT$u32$u20$as$u20$compiler_builtins..int..Int$GT$12wrapping_mul17h915de76009aa8cd9E
         U _ZN51_$LT$u32$u20$as$u20$compiler_builtins..int..Int$GT$12wrapping_sub17hfc416ec612820232E
         U _ZN51_$LT$u32$u20$as$u20$core..ops..bit..BitOrAssign$GT$12bitor_assign17hdbb9d292be4118deE
         U _ZN51_$LT$u64$u20$as$u20$compiler_builtins..int..Int$GT$12wrapping_add17h7dfa8a826cb536a3E
         U _ZN51_$LT$u64$u20$as$u20$compiler_builtins..int..Int$GT$12wrapping_mul17h5812643868e4d487E
         U _ZN51_$LT$u64$u20$as$u20$compiler_builtins..int..Int$GT$12wrapping_sub17h8037b4f2a5d9f1c2E
         U _ZN51_$LT$u64$u20$as$u20$core..ops..bit..BitOrAssign$GT$12bitor_assign17ha85fc9eeb1e563f4E
         U _ZN54_$LT$u64$u20$as$u20$core..ops..bit..Shl$LT$u32$GT$$GT$3shl17ha0f1f7c4d1b71c6fE
         U _ZN54_$LT$u64$u20$as$u20$core..ops..bit..Shr$LT$u32$GT$$GT$3shr17h86eb4bdcd62c3507E
         U _ZN55_$LT$f32$u20$as$u20$compiler_builtins..float..Float$GT$4repr17h8f5ffbf6b0078abdE
         U _ZN55_$LT$f32$u20$as$u20$compiler_builtins..float..Float$GT$9from_repr17ha1a3015a145c5e73E
         U _ZN55_$LT$f32$u20$as$u20$compiler_builtins..float..Float$GT$9normalize17h3b07022c817f6bf0E
         U _ZN55_$LT$f64$u20$as$u20$compiler_builtins..float..Float$GT$4repr17h0758fb00ae3e2115E
         U _ZN55_$LT$f64$u20$as$u20$compiler_builtins..float..Float$GT$9from_repr17h6e7c91fe7cbb7eecE
         U _ZN55_$LT$f64$u20$as$u20$compiler_builtins..float..Float$GT$9normalize17h71c414bb21f0351bE
         U _ZN55_$LT$u32$u20$as$u20$compiler_builtins..int..WideInt$GT$8wide_mul17h89a7749769312b40E
         U _ZN55_$LT$u64$u20$as$u20$compiler_builtins..int..WideInt$GT$8wide_mul17h681ab07cee7bbea5E
         U _ZN60_$LT$u64$u20$as$u20$core..ops..bit..ShrAssign$LT$u32$GT$$GT$10shr_assign17h55f4020ad23dfaecE
         U _ZN67_$LT$i32$u20$as$u20$compiler_builtins..int..CastInto$LT$u32$GT$$GT$4cast17h1a9ddc161d6f5a2dE
         U _ZN67_$LT$i32$u20$as$u20$compiler_builtins..int..CastInto$LT$u64$GT$$GT$4cast17h1d575389270f9848E
         U _ZN67_$LT$u32$u20$as$u20$compiler_builtins..int..CastInto$LT$i32$GT$$GT$4cast17h432e5905f96e2733E
         U _ZN67_$LT$u32$u20$as$u20$compiler_builtins..int..CastInto$LT$u32$GT$$GT$4cast17h143e8637064b7490E
         U _ZN67_$LT$u32$u20$as$u20$compiler_builtins..int..CastInto$LT$u64$GT$$GT$4cast17h20cf968f480ff57bE
         U _ZN67_$LT$u64$u20$as$u20$compiler_builtins..int..CastInto$LT$i32$GT$$GT$4cast17he77b25eee3967605E
         U _ZN67_$LT$u64$u20$as$u20$compiler_builtins..int..CastInto$LT$u32$GT$$GT$4cast17h54b8c8bf30ed96a9E
         U _ZN67_$LT$u64$u20$as$u20$compiler_builtins..int..CastInto$LT$u64$GT$$GT$4cast17ha7ca0b4b4608b837E
00000000 T __divdf3
00000000 T __divsf3

compiler_builtins-f5ff472cd7010299.compiler_builtins.eq9b4eau-cgu.3.rcgu.o:
         U _GLOBAL_OFFSET_TABLE_
00000000 T _ZN17compiler_builtins3int4udiv13rust_u128_div17h8151bc1adbb652a5E
00000000 T _ZN17compiler_builtins3int4udiv13rust_u128_rem17h33382701aebfb63aE
         U _ZN17compiler_builtins5abort17h0d9c37a13e10135bE
         U _ZN4core3num21_$LT$impl$u20$u32$GT$12wrapping_sub17h585e80f4bf5adf4dE
         U _ZN4core3num21_$LT$impl$u20$u32$GT$13leading_zeros17h938397eb22aa8e51E
         U _ZN4core3num21_$LT$impl$u20$u32$GT$14trailing_zeros17h7f6643341e7b2718E
         U _ZN4core3num21_$LT$impl$u20$u32$GT$15is_power_of_two17h376cdff01255effbE
         U _ZN4core3num21_$LT$impl$u20$u64$GT$12wrapping_sub17hc1471035f96d6b64E
         U _ZN4core3num21_$LT$impl$u20$u64$GT$13leading_zeros17h39f42c9f391bd6e5E
         U _ZN4core3num21_$LT$impl$u20$u64$GT$14trailing_zeros17h7c4feaee3cadf21eE
         U _ZN4core3num21_$LT$impl$u20$u64$GT$15is_power_of_two17h0d950ade29379d25E
         U _ZN4core3num22_$LT$impl$u20$u128$GT$12wrapping_sub17h1642a5fd88095adeE
         U _ZN4core3num64_$LT$impl$u20$core..convert..From$LT$u32$GT$$u20$for$u20$u64$GT$4from17hc19d7050ed3122caE
         U _ZN4core3num65_$LT$impl$u20$core..convert..From$LT$u64$GT$$u20$for$u20$u128$GT$4from17h050053b780d7788fE
         U _ZN51_$LT$u32$u20$as$u20$compiler_builtins..int..Int$GT$12aborting_div17hb723151a42030af6E
         U _ZN51_$LT$u32$u20$as$u20$compiler_builtins..int..Int$GT$12aborting_rem17h898fdd4aebef3639E
         U _ZN51_$LT$u64$u20$as$u20$compiler_builtins..int..Int$GT$12aborting_div17h5613bc762dc0d750E
         U _ZN51_$LT$u64$u20$as$u20$compiler_builtins..int..Int$GT$12aborting_rem17he02781a4b423c13aE
         U _ZN56_$LT$u64$u20$as$u20$compiler_builtins..int..LargeInt$GT$10from_parts17h858d355704851ebeE
         U _ZN56_$LT$u64$u20$as$u20$compiler_builtins..int..LargeInt$GT$3low17hd2cc09b79e4e8b0aE
         U _ZN56_$LT$u64$u20$as$u20$compiler_builtins..int..LargeInt$GT$4high17h236f7e5c27552c7bE
         U _ZN57_$LT$u128$u20$as$u20$compiler_builtins..int..LargeInt$GT$10from_parts17h4897306acc977ceaE
         U _ZN57_$LT$u128$u20$as$u20$compiler_builtins..int..LargeInt$GT$3low17h1f0f924b7197fa5dE
         U _ZN57_$LT$u128$u20$as$u20$compiler_builtins..int..LargeInt$GT$4high17h566f29a48d37f5d8E
00000000 T __udivdi3
00000000 T __udivmoddi4
00000000 T __udivmodsi4
00000000 T __udivmodti4
00000000 T __udivsi3
00000000 T __udivti3
00000000 T __umoddi3
00000000 T __umodsi3
00000000 T __umodti3

compiler_builtins-f5ff472cd7010299.compiler_builtins.eq9b4eau-cgu.4.rcgu.o:
         U _GLOBAL_OFFSET_TABLE_
00000000 t _ZN17compiler_builtins3int6unwrap17h0d811ae0264f8da7E
00000000 t _ZN17compiler_builtins3int6unwrap17h1fd4326e6f630659E
00000000 t _ZN17compiler_builtins3int6unwrap17h41e97967ec9738aaE
00000000 t _ZN17compiler_builtins3int6unwrap17hb708996b96fc4d2cE
00000000 t _ZN17compiler_builtins3int6unwrap17hbe9871573156d057E
00000000 t _ZN17compiler_builtins3int6unwrap17he4b5bece9b5501faE
         U _ZN17compiler_builtins5abort17h0d9c37a13e10135bE
         U _ZN4core3num21_$LT$impl$u20$i32$GT$11checked_div17hab358294bd1cbd86E
         U _ZN4core3num21_$LT$impl$u20$i32$GT$11checked_rem17h87d77a1ebfe8fb65E
         U _ZN4core3num21_$LT$impl$u20$i32$GT$12wrapping_add17h8a83867ed9955404E
         U _ZN4core3num21_$LT$impl$u20$i32$GT$12wrapping_mul17h3e86d751c71a8feaE
         U _ZN4core3num21_$LT$impl$u20$i32$GT$12wrapping_shl17h5eedd3812e3aeda0E
         U _ZN4core3num21_$LT$impl$u20$i32$GT$12wrapping_sub17hac938fb0d85988d4E
         U _ZN4core3num21_$LT$impl$u20$i32$GT$13leading_zeros17hb1977141ded78971E
         U _ZN4core3num21_$LT$impl$u20$i32$GT$15overflowing_add17hcee6ce6544925912E
         U _ZN4core3num21_$LT$impl$u20$i32$GT$9max_value17hdcf171284b3046b8E
         U _ZN4core3num21_$LT$impl$u20$i32$GT$9min_value17h6b59c41173cdbbefE
         U _ZN4core3num21_$LT$impl$u20$i64$GT$11checked_div17hb92a79a2faa9d674E
         U _ZN4core3num21_$LT$impl$u20$i64$GT$11checked_rem17hf313412ce937906cE
         U _ZN4core3num21_$LT$impl$u20$i64$GT$12wrapping_add17h8a899b52be193b8dE
         U _ZN4core3num21_$LT$impl$u20$i64$GT$12wrapping_mul17hb00bd87292414becE
         U _ZN4core3num21_$LT$impl$u20$i64$GT$12wrapping_shl17hc5cc6a5aa50813feE
         U _ZN4core3num21_$LT$impl$u20$i64$GT$12wrapping_sub17h0e372e194d86c093E
         U _ZN4core3num21_$LT$impl$u20$i64$GT$13leading_zeros17h1d2dccb16453aea0E
         U _ZN4core3num21_$LT$impl$u20$i64$GT$15overflowing_add17heed6bd329ce639c0E
         U _ZN4core3num21_$LT$impl$u20$i64$GT$9max_value17hbd9868e9efbc3155E
         U _ZN4core3num21_$LT$impl$u20$i64$GT$9min_value17h8e436202275f1a8fE
         U _ZN4core3num21_$LT$impl$u20$u32$GT$11checked_div17ha938576bb7ad78f6E
         U _ZN4core3num21_$LT$impl$u20$u32$GT$11checked_rem17hd40d287e96f34825E
         U _ZN4core3num21_$LT$impl$u20$u32$GT$12wrapping_add17h98ea2ee4ee785327E
         U _ZN4core3num21_$LT$impl$u20$u32$GT$12wrapping_mul17h833c0953fbf53fd3E
         U _ZN4core3num21_$LT$impl$u20$u32$GT$12wrapping_shl17heca854c4fa0fba53E
         U _ZN4core3num21_$LT$impl$u20$u32$GT$12wrapping_sub17h585e80f4bf5adf4dE
         U _ZN4core3num21_$LT$impl$u20$u32$GT$13leading_zeros17h938397eb22aa8e51E
         U _ZN4core3num21_$LT$impl$u20$u32$GT$15overflowing_add17hba1b5b378652e4c4E
         U _ZN4core3num21_$LT$impl$u20$u32$GT$9max_value17hf2f3c7ea034e0411E
         U _ZN4core3num21_$LT$impl$u20$u32$GT$9min_value17ha342cb6b78ac7ae1E
         U _ZN4core3num21_$LT$impl$u20$u64$GT$11checked_div17h9d0ecce9f016d305E
         U _ZN4core3num21_$LT$impl$u20$u64$GT$11checked_rem17hcd6dd19bbd7ade82E
         U _ZN4core3num21_$LT$impl$u20$u64$GT$12wrapping_add17he6a95ba2a42002b8E
         U _ZN4core3num21_$LT$impl$u20$u64$GT$12wrapping_mul17ha18a44789c066a74E
         U _ZN4core3num21_$LT$impl$u20$u64$GT$12wrapping_shl17hddfe6d5f449da5ceE
         U _ZN4core3num21_$LT$impl$u20$u64$GT$12wrapping_sub17hc1471035f96d6b64E
         U _ZN4core3num21_$LT$impl$u20$u64$GT$13leading_zeros17h39f42c9f391bd6e5E
         U _ZN4core3num21_$LT$impl$u20$u64$GT$15overflowing_add17hd1625256d20ddd9fE
         U _ZN4core3num21_$LT$impl$u20$u64$GT$9max_value17hfd974d533f760c91E
         U _ZN4core3num21_$LT$impl$u20$u64$GT$9min_value17h55af64204565c230E
         U _ZN4core3num22_$LT$impl$u20$i128$GT$11checked_div17h058d405bfa0cd74cE
         U _ZN4core3num22_$LT$impl$u20$i128$GT$11checked_rem17ha5b951bacbf649e6E
         U _ZN4core3num22_$LT$impl$u20$i128$GT$12wrapping_add17hb97c250512cfb052E
         U _ZN4core3num22_$LT$impl$u20$i128$GT$12wrapping_mul17h4805e6d6f9595415E
         U _ZN4core3num22_$LT$impl$u20$i128$GT$12wrapping_shl17h376c8419e8d740b9E
         U _ZN4core3num22_$LT$impl$u20$i128$GT$12wrapping_sub17h01bde137435c3f7aE
         U _ZN4core3num22_$LT$impl$u20$i128$GT$13leading_zeros17h9895b8e7b1cb2456E
         U _ZN4core3num22_$LT$impl$u20$i128$GT$15overflowing_add17h9fcd76ffa47366a0E
         U _ZN4core3num22_$LT$impl$u20$i128$GT$9max_value17hf236399d178bec9dE
         U _ZN4core3num22_$LT$impl$u20$i128$GT$9min_value17hc08382d13126ffd5E
         U _ZN4core3num22_$LT$impl$u20$u128$GT$11checked_div17hb402676a359b78e8E
         U _ZN4core3num22_$LT$impl$u20$u128$GT$11checked_rem17hfc55d24ea3464263E
         U _ZN4core3num22_$LT$impl$u20$u128$GT$12wrapping_add17h61ae822081154054E
         U _ZN4core3num22_$LT$impl$u20$u128$GT$12wrapping_mul17h184261944fdc84e4E
         U _ZN4core3num22_$LT$impl$u20$u128$GT$12wrapping_shl17h0af8a8f845568f90E
         U _ZN4core3num22_$LT$impl$u20$u128$GT$12wrapping_sub17h1642a5fd88095adeE
         U _ZN4core3num22_$LT$impl$u20$u128$GT$13leading_zeros17hbc790cf54f1d9129E
         U _ZN4core3num22_$LT$impl$u20$u128$GT$15overflowing_add17he888ad697c66d6baE
         U _ZN4core3num22_$LT$impl$u20$u128$GT$9max_value17h729188e480583799E
         U _ZN4core3num22_$LT$impl$u20$u128$GT$9min_value17heda195796109c87aE
00000000 T _ZN51_$LT$i32$u20$as$u20$compiler_builtins..int..Int$GT$12aborting_div17h75763ac1ed74dbc1E
00000000 T _ZN51_$LT$i32$u20$as$u20$compiler_builtins..int..Int$GT$12aborting_rem17h46a2ae6d6a2c4155E
00000000 T _ZN51_$LT$i32$u20$as$u20$compiler_builtins..int..Int$GT$12extract_sign17hb34ef95a617099bbE
00000000 T _ZN51_$LT$i32$u20$as$u20$compiler_builtins..int..Int$GT$12wrapping_add17h6ce7d1ebc91fcc93E
00000000 T _ZN51_$LT$i32$u20$as$u20$compiler_builtins..int..Int$GT$12wrapping_mul17h4347188585f1f241E
00000000 T _ZN51_$LT$i32$u20$as$u20$compiler_builtins..int..Int$GT$12wrapping_shl17hb679c591f2542d3eE
00000000 T _ZN51_$LT$i32$u20$as$u20$compiler_builtins..int..Int$GT$12wrapping_sub17hda4700216ae74772E
00000000 T _ZN51_$LT$i32$u20$as$u20$compiler_builtins..int..Int$GT$13from_unsigned17h2f89db64efeda5e2E
00000000 T _ZN51_$LT$i32$u20$as$u20$compiler_builtins..int..Int$GT$13leading_zeros17hea90f0562b03abcaE
00000000 T _ZN51_$LT$i32$u20$as$u20$compiler_builtins..int..Int$GT$15overflowing_add17hdd5ef87a7bc0ba06E
00000000 T _ZN51_$LT$i32$u20$as$u20$compiler_builtins..int..Int$GT$8unsigned17h646b945df174b49aE
00000000 T _ZN51_$LT$i32$u20$as$u20$compiler_builtins..int..Int$GT$9from_bool17haccbce03da87f5bcE
00000000 T _ZN51_$LT$i32$u20$as$u20$compiler_builtins..int..Int$GT$9max_value17hda3e7a8697e5ae23E
00000000 T _ZN51_$LT$i32$u20$as$u20$compiler_builtins..int..Int$GT$9min_value17hfc46aef5d38baf8dE
00000000 T _ZN51_$LT$i64$u20$as$u20$compiler_builtins..int..Int$GT$12aborting_div17h7fd2a02e24a951b4E
00000000 T _ZN51_$LT$i64$u20$as$u20$compiler_builtins..int..Int$GT$12aborting_rem17h975b5a3829bb4c1aE
00000000 T _ZN51_$LT$i64$u20$as$u20$compiler_builtins..int..Int$GT$12extract_sign17he56c34b173aa7217E
00000000 T _ZN51_$LT$i64$u20$as$u20$compiler_builtins..int..Int$GT$12wrapping_add17h1abe367a7c2a15dcE
00000000 T _ZN51_$LT$i64$u20$as$u20$compiler_builtins..int..Int$GT$12wrapping_mul17h1ef9e6b23c3e7b16E
00000000 T _ZN51_$LT$i64$u20$as$u20$compiler_builtins..int..Int$GT$12wrapping_shl17hc36240352d06848dE
00000000 T _ZN51_$LT$i64$u20$as$u20$compiler_builtins..int..Int$GT$12wrapping_sub17h45be455285926f80E
00000000 T _ZN51_$LT$i64$u20$as$u20$compiler_builtins..int..Int$GT$13from_unsigned17hffc71adb386b4eccE
00000000 T _ZN51_$LT$i64$u20$as$u20$compiler_builtins..int..Int$GT$13leading_zeros17h038de310f00bd86dE
00000000 T _ZN51_$LT$i64$u20$as$u20$compiler_builtins..int..Int$GT$15overflowing_add17h2a795e539b1fcb2cE
00000000 T _ZN51_$LT$i64$u20$as$u20$compiler_builtins..int..Int$GT$8unsigned17h262c2b0f0bfc217dE
00000000 T _ZN51_$LT$i64$u20$as$u20$compiler_builtins..int..Int$GT$9from_bool17h117701a05a818407E
00000000 T _ZN51_$LT$i64$u20$as$u20$compiler_builtins..int..Int$GT$9max_value17hff4e60d50e33662eE
00000000 T _ZN51_$LT$i64$u20$as$u20$compiler_builtins..int..Int$GT$9min_value17ha89e3c6f45fc09f5E
00000000 T _ZN51_$LT$u32$u20$as$u20$compiler_builtins..int..Int$GT$12aborting_div17hb723151a42030af6E
00000000 T _ZN51_$LT$u32$u20$as$u20$compiler_builtins..int..Int$GT$12aborting_rem17h898fdd4aebef3639E
00000000 T _ZN51_$LT$u32$u20$as$u20$compiler_builtins..int..Int$GT$12extract_sign17h11fbf43cbbcd9520E
00000000 T _ZN51_$LT$u32$u20$as$u20$compiler_builtins..int..Int$GT$12wrapping_add17h71d49edaa6089aa9E
00000000 T _ZN51_$LT$u32$u20$as$u20$compiler_builtins..int..Int$GT$12wrapping_mul17h915de76009aa8cd9E
00000000 T _ZN51_$LT$u32$u20$as$u20$compiler_builtins..int..Int$GT$12wrapping_shl17h2dee4c325ca4d112E
00000000 T _ZN51_$LT$u32$u20$as$u20$compiler_builtins..int..Int$GT$12wrapping_sub17hfc416ec612820232E
00000000 T _ZN51_$LT$u32$u20$as$u20$compiler_builtins..int..Int$GT$13from_unsigned17h97b316c2a46fba3fE
00000000 T _ZN51_$LT$u32$u20$as$u20$compiler_builtins..int..Int$GT$13leading_zeros17hd2e88d189d867f52E
00000000 T _ZN51_$LT$u32$u20$as$u20$compiler_builtins..int..Int$GT$15overflowing_add17h2a1f62026f070cc3E
00000000 T _ZN51_$LT$u32$u20$as$u20$compiler_builtins..int..Int$GT$8unsigned17h448573d0e1505320E
00000000 T _ZN51_$LT$u32$u20$as$u20$compiler_builtins..int..Int$GT$9from_bool17ha5c29ebb0e8b96cdE
00000000 T _ZN51_$LT$u32$u20$as$u20$compiler_builtins..int..Int$GT$9max_value17he7e8044ec25c647aE
00000000 T _ZN51_$LT$u32$u20$as$u20$compiler_builtins..int..Int$GT$9min_value17hcb3a042459ccf654E
00000000 T _ZN51_$LT$u64$u20$as$u20$compiler_builtins..int..Int$GT$12aborting_div17h5613bc762dc0d750E
00000000 T _ZN51_$LT$u64$u20$as$u20$compiler_builtins..int..Int$GT$12aborting_rem17he02781a4b423c13aE
00000000 T _ZN51_$LT$u64$u20$as$u20$compiler_builtins..int..Int$GT$12extract_sign17h756ad229a97b3fecE
00000000 T _ZN51_$LT$u64$u20$as$u20$compiler_builtins..int..Int$GT$12wrapping_add17h7dfa8a826cb536a3E
00000000 T _ZN51_$LT$u64$u20$as$u20$compiler_builtins..int..Int$GT$12wrapping_mul17h5812643868e4d487E
00000000 T _ZN51_$LT$u64$u20$as$u20$compiler_builtins..int..Int$GT$12wrapping_shl17h5e176d8bf532d064E
00000000 T _ZN51_$LT$u64$u20$as$u20$compiler_builtins..int..Int$GT$12wrapping_sub17h8037b4f2a5d9f1c2E
00000000 T _ZN51_$LT$u64$u20$as$u20$compiler_builtins..int..Int$GT$13from_unsigned17hb848a433d672e089E
00000000 T _ZN51_$LT$u64$u20$as$u20$compiler_builtins..int..Int$GT$13leading_zeros17h3111e9b05efcc7f0E
00000000 T _ZN51_$LT$u64$u20$as$u20$compiler_builtins..int..Int$GT$15overflowing_add17hf0ff37e016137dbcE
00000000 T _ZN51_$LT$u64$u20$as$u20$compiler_builtins..int..Int$GT$8unsigned17hd00c13c0e293772dE
00000000 T _ZN51_$LT$u64$u20$as$u20$compiler_builtins..int..Int$GT$9from_bool17h1d75c543bd4c9069E
00000000 T _ZN51_$LT$u64$u20$as$u20$compiler_builtins..int..Int$GT$9max_value17h6cd8cf47fcbb94aeE
00000000 T _ZN51_$LT$u64$u20$as$u20$compiler_builtins..int..Int$GT$9min_value17h53eb0ea3646d3ddeE
00000000 T _ZN52_$LT$i128$u20$as$u20$compiler_builtins..int..Int$GT$12aborting_div17hc50d68e000f2186bE
00000000 T _ZN52_$LT$i128$u20$as$u20$compiler_builtins..int..Int$GT$12aborting_rem17h3bcef93bae9ec00dE
00000000 T _ZN52_$LT$i128$u20$as$u20$compiler_builtins..int..Int$GT$12extract_sign17h6c82a97afa69dbeeE
00000000 T _ZN52_$LT$i128$u20$as$u20$compiler_builtins..int..Int$GT$12wrapping_add17hee46bcdcf3af05deE
00000000 T _ZN52_$LT$i128$u20$as$u20$compiler_builtins..int..Int$GT$12wrapping_mul17h97871684f8a306e9E
00000000 T _ZN52_$LT$i128$u20$as$u20$compiler_builtins..int..Int$GT$12wrapping_shl17hae61c608dde5ff29E
00000000 T _ZN52_$LT$i128$u20$as$u20$compiler_builtins..int..Int$GT$12wrapping_sub17h8a4b169967f3b2d9E
00000000 T _ZN52_$LT$i128$u20$as$u20$compiler_builtins..int..Int$GT$13from_unsigned17h1832996436ba572dE
00000000 T _ZN52_$LT$i128$u20$as$u20$compiler_builtins..int..Int$GT$13leading_zeros17hdb5f2a133562bf2aE
00000000 T _ZN52_$LT$i128$u20$as$u20$compiler_builtins..int..Int$GT$15overflowing_add17h96c0f313fb3690f8E
00000000 T _ZN52_$LT$i128$u20$as$u20$compiler_builtins..int..Int$GT$8unsigned17ha71c16c8f15a84d0E
00000000 T _ZN52_$LT$i128$u20$as$u20$compiler_builtins..int..Int$GT$9from_bool17hc248b7f44bfd5d0bE
00000000 T _ZN52_$LT$i128$u20$as$u20$compiler_builtins..int..Int$GT$9max_value17h7f5e02ee5eb0cbd3E
00000000 T _ZN52_$LT$i128$u20$as$u20$compiler_builtins..int..Int$GT$9min_value17h2c21496c1ffc4ecdE
00000000 T _ZN52_$LT$u128$u20$as$u20$compiler_builtins..int..Int$GT$12aborting_div17h56bb4b522bfbff15E
00000000 T _ZN52_$LT$u128$u20$as$u20$compiler_builtins..int..Int$GT$12aborting_rem17ha1ee4742639deaeaE
00000000 T _ZN52_$LT$u128$u20$as$u20$compiler_builtins..int..Int$GT$12extract_sign17h27da7f44d090f5abE
00000000 T _ZN52_$LT$u128$u20$as$u20$compiler_builtins..int..Int$GT$12wrapping_add17h6dcc7d34a7f0d386E
00000000 T _ZN52_$LT$u128$u20$as$u20$compiler_builtins..int..Int$GT$12wrapping_mul17hd4ac759811125d27E
00000000 T _ZN52_$LT$u128$u20$as$u20$compiler_builtins..int..Int$GT$12wrapping_shl17h5393a343f029f84cE
00000000 T _ZN52_$LT$u128$u20$as$u20$compiler_builtins..int..Int$GT$12wrapping_sub17hbcb32b4b6ec49c7fE
00000000 T _ZN52_$LT$u128$u20$as$u20$compiler_builtins..int..Int$GT$13from_unsigned17hc99acfdd18dde611E
00000000 T _ZN52_$LT$u128$u20$as$u20$compiler_builtins..int..Int$GT$13leading_zeros17h4cccd9caca2a9a5cE
00000000 T _ZN52_$LT$u128$u20$as$u20$compiler_builtins..int..Int$GT$15overflowing_add17hb451e928eb986568E
00000000 T _ZN52_$LT$u128$u20$as$u20$compiler_builtins..int..Int$GT$8unsigned17hdaca93f3aa743f9aE
00000000 T _ZN52_$LT$u128$u20$as$u20$compiler_builtins..int..Int$GT$9from_bool17hfbcb8eea84f990ecE
00000000 T _ZN52_$LT$u128$u20$as$u20$compiler_builtins..int..Int$GT$9max_value17he4d475681dd6e815E
00000000 T _ZN52_$LT$u128$u20$as$u20$compiler_builtins..int..Int$GT$9min_value17hd3147b960ef8a24fE
00000000 T _ZN55_$LT$u32$u20$as$u20$compiler_builtins..int..WideInt$GT$15wide_shift_left17h5f44681acaac1703E
00000000 T _ZN55_$LT$u32$u20$as$u20$compiler_builtins..int..WideInt$GT$28wide_shift_right_with_sticky17ha5b5707ac5c98275E
00000000 T _ZN55_$LT$u32$u20$as$u20$compiler_builtins..int..WideInt$GT$8wide_mul17h89a7749769312b40E
00000000 T _ZN55_$LT$u64$u20$as$u20$compiler_builtins..int..WideInt$GT$15wide_shift_left17h157b1ea173593884E
00000000 T _ZN55_$LT$u64$u20$as$u20$compiler_builtins..int..WideInt$GT$28wide_shift_right_with_sticky17h82de879c26406354E
00000000 T _ZN55_$LT$u64$u20$as$u20$compiler_builtins..int..WideInt$GT$8wide_mul17h681ab07cee7bbea5E
00000000 T _ZN56_$LT$i64$u20$as$u20$compiler_builtins..int..LargeInt$GT$10from_parts17h4e91697c181056e9E
00000000 T _ZN56_$LT$i64$u20$as$u20$compiler_builtins..int..LargeInt$GT$11high_as_low17hc5090f45d1bd0949E
00000000 T _ZN56_$LT$i64$u20$as$u20$compiler_builtins..int..LargeInt$GT$11low_as_high17h48627170540eb6b3E
00000000 T _ZN56_$LT$i64$u20$as$u20$compiler_builtins..int..LargeInt$GT$3low17hda86ee8397c06d52E
00000000 T _ZN56_$LT$i64$u20$as$u20$compiler_builtins..int..LargeInt$GT$4high17he407240f3c1791e6E
00000000 T _ZN56_$LT$u64$u20$as$u20$compiler_builtins..int..LargeInt$GT$10from_parts17h858d355704851ebeE
00000000 T _ZN56_$LT$u64$u20$as$u20$compiler_builtins..int..LargeInt$GT$11high_as_low17h0bf401e28e096358E
00000000 T _ZN56_$LT$u64$u20$as$u20$compiler_builtins..int..LargeInt$GT$11low_as_high17h3b810c9898550832E
00000000 T _ZN56_$LT$u64$u20$as$u20$compiler_builtins..int..LargeInt$GT$3low17hd2cc09b79e4e8b0aE
00000000 T _ZN56_$LT$u64$u20$as$u20$compiler_builtins..int..LargeInt$GT$4high17h236f7e5c27552c7bE
00000000 T _ZN57_$LT$i128$u20$as$u20$compiler_builtins..int..LargeInt$GT$10from_parts17he0fa600b3e436cb0E
00000000 T _ZN57_$LT$i128$u20$as$u20$compiler_builtins..int..LargeInt$GT$11high_as_low17h689184a657c561a6E
00000000 T _ZN57_$LT$i128$u20$as$u20$compiler_builtins..int..LargeInt$GT$11low_as_high17h1e7b4b564233a43bE
00000000 T _ZN57_$LT$i128$u20$as$u20$compiler_builtins..int..LargeInt$GT$3low17hd753107fc9efe2acE
00000000 T _ZN57_$LT$i128$u20$as$u20$compiler_builtins..int..LargeInt$GT$4high17hd9852ca2d6ceb90bE
00000000 T _ZN57_$LT$u128$u20$as$u20$compiler_builtins..int..LargeInt$GT$10from_parts17h4897306acc977ceaE
00000000 T _ZN57_$LT$u128$u20$as$u20$compiler_builtins..int..LargeInt$GT$11high_as_low17h75af73e12a6b58ffE
00000000 T _ZN57_$LT$u128$u20$as$u20$compiler_builtins..int..LargeInt$GT$11low_as_high17h5348d4369bc26b01E
00000000 T _ZN57_$LT$u128$u20$as$u20$compiler_builtins..int..LargeInt$GT$3low17h1f0f924b7197fa5dE
00000000 T _ZN57_$LT$u128$u20$as$u20$compiler_builtins..int..LargeInt$GT$4high17h566f29a48d37f5d8E
00000000 T _ZN67_$LT$i32$u20$as$u20$compiler_builtins..int..CastInto$LT$i32$GT$$GT$4cast17h35bf25e6eb285d97E
00000000 T _ZN67_$LT$i32$u20$as$u20$compiler_builtins..int..CastInto$LT$i64$GT$$GT$4cast17h88c50860b680df8cE
00000000 T _ZN67_$LT$i32$u20$as$u20$compiler_builtins..int..CastInto$LT$u32$GT$$GT$4cast17h1a9ddc161d6f5a2dE
00000000 T _ZN67_$LT$i32$u20$as$u20$compiler_builtins..int..CastInto$LT$u64$GT$$GT$4cast17h1d575389270f9848E
00000000 T _ZN67_$LT$i64$u20$as$u20$compiler_builtins..int..CastInto$LT$i32$GT$$GT$4cast17h1dd3a1040a7f3108E
00000000 T _ZN67_$LT$i64$u20$as$u20$compiler_builtins..int..CastInto$LT$i64$GT$$GT$4cast17hc78300bca3d4d26bE
00000000 T _ZN67_$LT$i64$u20$as$u20$compiler_builtins..int..CastInto$LT$u32$GT$$GT$4cast17h264e28236d449a41E
00000000 T _ZN67_$LT$i64$u20$as$u20$compiler_builtins..int..CastInto$LT$u64$GT$$GT$4cast17h51840a5052d8bcd6E
00000000 T _ZN67_$LT$u32$u20$as$u20$compiler_builtins..int..CastInto$LT$i32$GT$$GT$4cast17h432e5905f96e2733E
00000000 T _ZN67_$LT$u32$u20$as$u20$compiler_builtins..int..CastInto$LT$i64$GT$$GT$4cast17ha0a923f175797523E
00000000 T _ZN67_$LT$u32$u20$as$u20$compiler_builtins..int..CastInto$LT$u32$GT$$GT$4cast17h143e8637064b7490E
00000000 T _ZN67_$LT$u32$u20$as$u20$compiler_builtins..int..CastInto$LT$u64$GT$$GT$4cast17h20cf968f480ff57bE
00000000 T _ZN67_$LT$u64$u20$as$u20$compiler_builtins..int..CastInto$LT$i32$GT$$GT$4cast17he77b25eee3967605E
00000000 T _ZN67_$LT$u64$u20$as$u20$compiler_builtins..int..CastInto$LT$i64$GT$$GT$4cast17h9e5243f952fb86d1E
00000000 T _ZN67_$LT$u64$u20$as$u20$compiler_builtins..int..CastInto$LT$u32$GT$$GT$4cast17h54b8c8bf30ed96a9E
00000000 T _ZN67_$LT$u64$u20$as$u20$compiler_builtins..int..CastInto$LT$u64$GT$$GT$4cast17ha7ca0b4b4608b837E
00000000 T _ZN68_$LT$i128$u20$as$u20$compiler_builtins..int..CastInto$LT$i32$GT$$GT$4cast17h18ee9961f498ec34E
00000000 T _ZN68_$LT$i128$u20$as$u20$compiler_builtins..int..CastInto$LT$i64$GT$$GT$4cast17h4ab1fd27c97e851dE
00000000 T _ZN68_$LT$i128$u20$as$u20$compiler_builtins..int..CastInto$LT$u32$GT$$GT$4cast17hb5f9f50327e699edE
00000000 T _ZN68_$LT$i128$u20$as$u20$compiler_builtins..int..CastInto$LT$u64$GT$$GT$4cast17h51c0bff7c51a0662E
00000000 T _ZN68_$LT$i32$u20$as$u20$compiler_builtins..int..CastInto$LT$i128$GT$$GT$4cast17hdf6ae7e1b5e33b0dE
00000000 T _ZN68_$LT$i32$u20$as$u20$compiler_builtins..int..CastInto$LT$u128$GT$$GT$4cast17h97698b278c77f0feE
00000000 T _ZN68_$LT$i64$u20$as$u20$compiler_builtins..int..CastInto$LT$i128$GT$$GT$4cast17h6bb641493d4efe92E
00000000 T _ZN68_$LT$i64$u20$as$u20$compiler_builtins..int..CastInto$LT$u128$GT$$GT$4cast17hbad6a1446378c421E
00000000 T _ZN68_$LT$u128$u20$as$u20$compiler_builtins..int..CastInto$LT$i32$GT$$GT$4cast17heac3ff33f8f7ee0dE
00000000 T _ZN68_$LT$u128$u20$as$u20$compiler_builtins..int..CastInto$LT$i64$GT$$GT$4cast17h684a5f8f4dd6bb89E
00000000 T _ZN68_$LT$u128$u20$as$u20$compiler_builtins..int..CastInto$LT$u32$GT$$GT$4cast17h9274c38d5886c790E
00000000 T _ZN68_$LT$u128$u20$as$u20$compiler_builtins..int..CastInto$LT$u64$GT$$GT$4cast17h939d4ec394e9c2d0E
00000000 T _ZN68_$LT$u32$u20$as$u20$compiler_builtins..int..CastInto$LT$i128$GT$$GT$4cast17h1228e206e87f4aefE
00000000 T _ZN68_$LT$u32$u20$as$u20$compiler_builtins..int..CastInto$LT$u128$GT$$GT$4cast17he86a1f647dae02bcE
00000000 T _ZN68_$LT$u64$u20$as$u20$compiler_builtins..int..CastInto$LT$i128$GT$$GT$4cast17h094670e14fbe8925E
00000000 T _ZN68_$LT$u64$u20$as$u20$compiler_builtins..int..CastInto$LT$u128$GT$$GT$4cast17hfc2b89831f82c626E
00000000 T _ZN69_$LT$i128$u20$as$u20$compiler_builtins..int..CastInto$LT$i128$GT$$GT$4cast17h22cef211d25ab52cE
00000000 T _ZN69_$LT$i128$u20$as$u20$compiler_builtins..int..CastInto$LT$u128$GT$$GT$4cast17h461527415c194acaE
00000000 T _ZN69_$LT$i32$u20$as$u20$compiler_builtins..int..CastInto$LT$isize$GT$$GT$4cast17ha50be0effeacf675E
00000000 T _ZN69_$LT$i32$u20$as$u20$compiler_builtins..int..CastInto$LT$usize$GT$$GT$4cast17hbc3b6bd01809530dE
00000000 T _ZN69_$LT$i64$u20$as$u20$compiler_builtins..int..CastInto$LT$isize$GT$$GT$4cast17h2c90cd88972702eaE
00000000 T _ZN69_$LT$i64$u20$as$u20$compiler_builtins..int..CastInto$LT$usize$GT$$GT$4cast17he3f5d9c09454db3fE
00000000 T _ZN69_$LT$u128$u20$as$u20$compiler_builtins..int..CastInto$LT$i128$GT$$GT$4cast17haf29350a89c89f15E
00000000 T _ZN69_$LT$u128$u20$as$u20$compiler_builtins..int..CastInto$LT$u128$GT$$GT$4cast17h8204b6a8c51823f3E
00000000 T _ZN69_$LT$u32$u20$as$u20$compiler_builtins..int..CastInto$LT$isize$GT$$GT$4cast17h9970c3dee5aa64e8E
00000000 T _ZN69_$LT$u32$u20$as$u20$compiler_builtins..int..CastInto$LT$usize$GT$$GT$4cast17h627f0a0fad0cbafbE
00000000 T _ZN69_$LT$u64$u20$as$u20$compiler_builtins..int..CastInto$LT$isize$GT$$GT$4cast17h6e4f8132495f335eE
00000000 T _ZN69_$LT$u64$u20$as$u20$compiler_builtins..int..CastInto$LT$usize$GT$$GT$4cast17h4b40a9e1c0aaf1d0E
00000000 T _ZN70_$LT$i128$u20$as$u20$compiler_builtins..int..CastInto$LT$isize$GT$$GT$4cast17h92175f69cef9781eE
00000000 T _ZN70_$LT$i128$u20$as$u20$compiler_builtins..int..CastInto$LT$usize$GT$$GT$4cast17h959b0e25097658f5E
00000000 T _ZN70_$LT$u128$u20$as$u20$compiler_builtins..int..CastInto$LT$isize$GT$$GT$4cast17hf7ee5cebc306dd8bE
00000000 T _ZN70_$LT$u128$u20$as$u20$compiler_builtins..int..CastInto$LT$usize$GT$$GT$4cast17h1c21e8a934e1511cE
00000000 T __clzsi2

compiler_builtins-f5ff472cd7010299.compiler_builtins.eq9b4eau-cgu.5.rcgu.o:
         U _GLOBAL_OFFSET_TABLE_
00000000 T _ZN17compiler_builtins3int3mul13rust_i128_mul17h1756106ff698ddb6E
00000000 T _ZN17compiler_builtins3int3mul13rust_u128_mul17h9be871e5d76e1498E
00000000 T _ZN17compiler_builtins3int3mul14rust_i128_mulo17hc012520c0b38fb97E
00000000 T _ZN17compiler_builtins3int3mul14rust_u128_mulo17hdf20279d700f8dfeE
00000000 T _ZN17compiler_builtins3int3mul3Mul3mul17h8375f7fee412e19bE
00000000 T _ZN17compiler_builtins3int3mul3Mul3mul17hd5ebeb58969d562eE
00000000 T _ZN17compiler_builtins3int3mul4Mulo4mulo17h12d90f9a3731f296E
00000000 T _ZN17compiler_builtins3int3mul4Mulo4mulo17hd16706f1a3c04931E
00000000 T _ZN17compiler_builtins3int3mul4Mulo4mulo17hf35c8aec7a04759dE
00000000 T _ZN17compiler_builtins3int3mul5UMulo4mulo17h01ca2646b1c9e94eE
         U _ZN43_$LT$u32$u20$as$u20$core..ops..bit..Not$GT$3not17h52f3156e0d162c3cE
         U _ZN43_$LT$u32$u20$as$u20$core..ops..bit..Shl$GT$3shl17h634ba576376b5bb5E
         U _ZN43_$LT$u32$u20$as$u20$core..ops..bit..Shr$GT$3shr17h03da365e85e90f46E
         U _ZN43_$LT$u64$u20$as$u20$core..ops..bit..Not$GT$3not17h8b13b86b8de8a7c9E
         U _ZN45_$LT$i32$u20$as$u20$core..ops..arith..Add$GT$3add17h6055fbbcf44dddffE
         U _ZN45_$LT$i32$u20$as$u20$core..ops..arith..Neg$GT$3neg17hd69329815007aa29E
         U _ZN45_$LT$i32$u20$as$u20$core..ops..arith..Sub$GT$3sub17h2a1f954666c04c84E
         U _ZN45_$LT$i64$u20$as$u20$core..ops..arith..Add$GT$3add17hc01528f8f5e8dc72E
         U _ZN45_$LT$i64$u20$as$u20$core..ops..arith..Neg$GT$3neg17h2d0458fc8cea3312E
         U _ZN45_$LT$i64$u20$as$u20$core..ops..arith..Sub$GT$3sub17hc1e824b60e7b2b4fE
         U _ZN46_$LT$i128$u20$as$u20$core..ops..arith..Add$GT$3add17hd54fb285f29c2141E
         U _ZN46_$LT$i128$u20$as$u20$core..ops..arith..Neg$GT$3neg17h253252a7e13ccab9E
         U _ZN46_$LT$i128$u20$as$u20$core..ops..arith..Sub$GT$3sub17h657b1b2b41b30386E
         U _ZN46_$LT$i32$u20$as$u20$core..ops..bit..BitXor$GT$6bitxor17h3c47a13e8c804bafE
         U _ZN46_$LT$i64$u20$as$u20$core..ops..bit..BitXor$GT$6bitxor17ha6b3b23294659de1E
         U _ZN46_$LT$u32$u20$as$u20$core..ops..bit..BitAnd$GT$6bitand17h1773f5b7c3d72ad6E
         U _ZN46_$LT$u64$u20$as$u20$core..ops..bit..BitAnd$GT$6bitand17h40c9a4258b29d734E
         U _ZN47_$LT$i128$u20$as$u20$core..ops..bit..BitXor$GT$6bitxor17hfda060bc6ab1a14aE
         U _ZN4core3cmp5impls54_$LT$impl$u20$core..cmp..PartialEq$u20$for$u20$i32$GT$2eq17h62a7037da7b0bb17E
         U _ZN4core3cmp5impls54_$LT$impl$u20$core..cmp..PartialEq$u20$for$u20$i32$GT$2ne17hd06fa750a5116812E
         U _ZN4core3cmp5impls54_$LT$impl$u20$core..cmp..PartialEq$u20$for$u20$i64$GT$2eq17h5232208d8bbc2a83E
         U _ZN4core3cmp5impls54_$LT$impl$u20$core..cmp..PartialEq$u20$for$u20$i64$GT$2ne17h559df1a184ae7606E
         U _ZN4core3cmp5impls55_$LT$impl$u20$core..cmp..PartialEq$u20$for$u20$i128$GT$2eq17ha3deb4f2ed4baf5fE
         U _ZN4core3cmp5impls55_$LT$impl$u20$core..cmp..PartialEq$u20$for$u20$i128$GT$2ne17hea24dd997068ad60E
         U _ZN4core3cmp5impls55_$LT$impl$u20$core..cmp..PartialOrd$u20$for$u20$i32$GT$2gt17he25fbdfc8af7cf57E
         U _ZN4core3cmp5impls55_$LT$impl$u20$core..cmp..PartialOrd$u20$for$u20$i32$GT$2lt17h5fe5f03b2047f092E
         U _ZN4core3cmp5impls55_$LT$impl$u20$core..cmp..PartialOrd$u20$for$u20$i64$GT$2gt17h7bfce0d7b8f2996bE
         U _ZN4core3cmp5impls55_$LT$impl$u20$core..cmp..PartialOrd$u20$for$u20$i64$GT$2lt17ha467e06c5eb623caE
         U _ZN4core3cmp5impls56_$LT$impl$u20$core..cmp..PartialOrd$u20$for$u20$i128$GT$2gt17hcfbd28cc948fff14E
         U _ZN4core3cmp5impls56_$LT$impl$u20$core..cmp..PartialOrd$u20$for$u20$i128$GT$2lt17hc8e232ff0e68f5caE
         U _ZN4core3cmp5impls56_$LT$impl$u20$core..cmp..PartialOrd$u20$for$u20$u128$GT$2gt17h1ccea757b7f2252cE
         U _ZN51_$LT$i32$u20$as$u20$compiler_builtins..int..Int$GT$12aborting_div17h75763ac1ed74dbc1E
         U _ZN51_$LT$i32$u20$as$u20$compiler_builtins..int..Int$GT$12wrapping_mul17h4347188585f1f241E
         U _ZN51_$LT$i32$u20$as$u20$compiler_builtins..int..Int$GT$9max_value17hda3e7a8697e5ae23E
         U _ZN51_$LT$i32$u20$as$u20$compiler_builtins..int..Int$GT$9min_value17hfc46aef5d38baf8dE
         U _ZN51_$LT$i64$u20$as$u20$compiler_builtins..int..Int$GT$12aborting_div17h7fd2a02e24a951b4E
         U _ZN51_$LT$i64$u20$as$u20$compiler_builtins..int..Int$GT$12wrapping_add17h1abe367a7c2a15dcE
         U _ZN51_$LT$i64$u20$as$u20$compiler_builtins..int..Int$GT$12wrapping_mul17h1ef9e6b23c3e7b16E
         U _ZN51_$LT$i64$u20$as$u20$compiler_builtins..int..Int$GT$9max_value17hff4e60d50e33662eE
         U _ZN51_$LT$i64$u20$as$u20$compiler_builtins..int..Int$GT$9min_value17ha89e3c6f45fc09f5E
         U _ZN51_$LT$i64$u20$as$u20$core..ops..arith..AddAssign$GT$10add_assign17hac6532cfe279d652E
         U _ZN51_$LT$u32$u20$as$u20$compiler_builtins..int..Int$GT$12wrapping_add17h71d49edaa6089aa9E
         U _ZN51_$LT$u32$u20$as$u20$compiler_builtins..int..Int$GT$12wrapping_mul17h915de76009aa8cd9E
         U _ZN51_$LT$u32$u20$as$u20$core..ops..arith..AddAssign$GT$10add_assign17h0d1b1a91fd547a44E
         U _ZN51_$LT$u64$u20$as$u20$compiler_builtins..int..Int$GT$12wrapping_mul17h5812643868e4d487E
         U _ZN51_$LT$u64$u20$as$u20$core..ops..arith..AddAssign$GT$10add_assign17h2cb2bfbb093d4345E
         U _ZN52_$LT$i128$u20$as$u20$compiler_builtins..int..Int$GT$12aborting_div17hc50d68e000f2186bE
         U _ZN52_$LT$i128$u20$as$u20$compiler_builtins..int..Int$GT$12wrapping_mul17h97871684f8a306e9E
         U _ZN52_$LT$i128$u20$as$u20$compiler_builtins..int..Int$GT$9max_value17h7f5e02ee5eb0cbd3E
         U _ZN52_$LT$i128$u20$as$u20$compiler_builtins..int..Int$GT$9min_value17h2c21496c1ffc4ecdE
         U _ZN52_$LT$u128$u20$as$u20$compiler_builtins..int..Int$GT$12aborting_div17h56bb4b522bfbff15E
         U _ZN52_$LT$u128$u20$as$u20$compiler_builtins..int..Int$GT$12wrapping_mul17hd4ac759811125d27E
         U _ZN52_$LT$u128$u20$as$u20$compiler_builtins..int..Int$GT$9max_value17he4d475681dd6e815E
         U _ZN52_$LT$u32$u20$as$u20$core..ops..bit..BitAndAssign$GT$13bitand_assign17h2c7feccb473eb767E
         U _ZN52_$LT$u64$u20$as$u20$core..ops..bit..BitAndAssign$GT$13bitand_assign17hfd81b8b11869e611E
         U _ZN54_$LT$i32$u20$as$u20$core..ops..bit..Shr$LT$u32$GT$$GT$3shr17hd21a430ff92eba90E
         U _ZN54_$LT$i64$u20$as$u20$core..ops..bit..Shr$LT$u32$GT$$GT$3shr17h6071a342c1a33f50E
         U _ZN54_$LT$u64$u20$as$u20$core..ops..bit..Shl$LT$u32$GT$$GT$3shl17ha0f1f7c4d1b71c6fE
         U _ZN54_$LT$u64$u20$as$u20$core..ops..bit..Shr$LT$u32$GT$$GT$3shr17h86eb4bdcd62c3507E
         U _ZN55_$LT$i128$u20$as$u20$core..ops..bit..Shr$LT$u32$GT$$GT$3shr17hda6b45576d78d67cE
         U _ZN56_$LT$u64$u20$as$u20$compiler_builtins..int..LargeInt$GT$10from_parts17h858d355704851ebeE
         U _ZN56_$LT$u64$u20$as$u20$compiler_builtins..int..LargeInt$GT$11low_as_high17h3b810c9898550832E
         U _ZN56_$LT$u64$u20$as$u20$compiler_builtins..int..LargeInt$GT$3low17hd2cc09b79e4e8b0aE
         U _ZN56_$LT$u64$u20$as$u20$compiler_builtins..int..LargeInt$GT$4high17h236f7e5c27552c7bE
         U _ZN57_$LT$i128$u20$as$u20$compiler_builtins..int..LargeInt$GT$10from_parts17he0fa600b3e436cb0E
         U _ZN57_$LT$i128$u20$as$u20$compiler_builtins..int..LargeInt$GT$11low_as_high17h1e7b4b564233a43bE
         U _ZN57_$LT$i128$u20$as$u20$compiler_builtins..int..LargeInt$GT$3low17hd753107fc9efe2acE
         U _ZN57_$LT$i128$u20$as$u20$compiler_builtins..int..LargeInt$GT$4high17hd9852ca2d6ceb90bE
00000000 T __muldi3
00000000 T __mulodi4
00000000 T __mulosi4
00000000 T __muloti4
00000000 T __multi3

compiler_builtins-f5ff472cd7010299.compiler_builtins.eq9b4eau-cgu.6.rcgu.o:
         U _GLOBAL_OFFSET_TABLE_
00000000 t _ZN17compiler_builtins5float3mul3mul17h3d14d3873dd2aad9E
00000000 t _ZN17compiler_builtins5float3mul3mul17hdaf78760bbe7bedcE
         U _ZN43_$LT$u32$u20$as$u20$core..ops..bit..Shl$GT$3shl17h634ba576376b5bb5E
         U _ZN43_$LT$u32$u20$as$u20$core..ops..bit..Shr$GT$3shr17h03da365e85e90f46E
         U _ZN45_$LT$u32$u20$as$u20$core..ops..arith..Sub$GT$3sub17h9ca565dce5541067E
         U _ZN45_$LT$u32$u20$as$u20$core..ops..bit..BitOr$GT$5bitor17hc40cb5a44a2a7fb7E
         U _ZN45_$LT$u64$u20$as$u20$core..ops..arith..Sub$GT$3sub17h3a97c37b90d8418bE
         U _ZN45_$LT$u64$u20$as$u20$core..ops..bit..BitOr$GT$5bitor17h930540376ee8bfa1E
         U _ZN46_$LT$u32$u20$as$u20$core..ops..bit..BitAnd$GT$6bitand17h1773f5b7c3d72ad6E
         U _ZN46_$LT$u32$u20$as$u20$core..ops..bit..BitXor$GT$6bitxor17h6b2ca36f069acaa4E
         U _ZN46_$LT$u64$u20$as$u20$core..ops..bit..BitAnd$GT$6bitand17h40c9a4258b29d734E
         U _ZN46_$LT$u64$u20$as$u20$core..ops..bit..BitXor$GT$6bitxor17h44b363572c85d62dE
         U _ZN4core3cmp5impls54_$LT$impl$u20$core..cmp..PartialEq$u20$for$u20$u32$GT$2eq17h350742df64b83c1fE
         U _ZN4core3cmp5impls54_$LT$impl$u20$core..cmp..PartialEq$u20$for$u20$u32$GT$2ne17h0c4d640720225bffE
         U _ZN4core3cmp5impls54_$LT$impl$u20$core..cmp..PartialEq$u20$for$u20$u64$GT$2eq17hbacd82780d9a3b2aE
         U _ZN4core3cmp5impls54_$LT$impl$u20$core..cmp..PartialEq$u20$for$u20$u64$GT$2ne17h2615d7ccaad9f39dE
         U _ZN4core3cmp5impls55_$LT$impl$u20$core..cmp..PartialOrd$u20$for$u20$u32$GT$2ge17h5bf15486a498a1ebE
         U _ZN4core3cmp5impls55_$LT$impl$u20$core..cmp..PartialOrd$u20$for$u20$u32$GT$2gt17hbf41f2205478e0bfE
         U _ZN4core3cmp5impls55_$LT$impl$u20$core..cmp..PartialOrd$u20$for$u20$u32$GT$2lt17h5b84eab981e0d799E
         U _ZN4core3cmp5impls55_$LT$impl$u20$core..cmp..PartialOrd$u20$for$u20$u64$GT$2ge17h49adb901f09d82a6E
         U _ZN4core3cmp5impls55_$LT$impl$u20$core..cmp..PartialOrd$u20$for$u20$u64$GT$2gt17h5e3c82980d81afd5E
         U _ZN4core3cmp5impls55_$LT$impl$u20$core..cmp..PartialOrd$u20$for$u20$u64$GT$2lt17h456aeb5ced6f8734E
         U _ZN4core3num21_$LT$impl$u20$i32$GT$12wrapping_add17h8a83867ed9955404E
         U _ZN4core3num21_$LT$impl$u20$i32$GT$12wrapping_sub17hac938fb0d85988d4E
         U _ZN51_$LT$u32$u20$as$u20$compiler_builtins..int..Int$GT$12wrapping_sub17hfc416ec612820232E
         U _ZN51_$LT$u32$u20$as$u20$core..ops..arith..AddAssign$GT$10add_assign17h0d1b1a91fd547a44E
         U _ZN51_$LT$u32$u20$as$u20$core..ops..bit..BitOrAssign$GT$12bitor_assign17hdbb9d292be4118deE
         U _ZN51_$LT$u64$u20$as$u20$compiler_builtins..int..Int$GT$12wrapping_sub17h8037b4f2a5d9f1c2E
         U _ZN51_$LT$u64$u20$as$u20$core..ops..arith..AddAssign$GT$10add_assign17h2cb2bfbb093d4345E
         U _ZN51_$LT$u64$u20$as$u20$core..ops..bit..BitOrAssign$GT$12bitor_assign17ha85fc9eeb1e563f4E
         U _ZN52_$LT$u32$u20$as$u20$core..ops..bit..BitAndAssign$GT$13bitand_assign17h2c7feccb473eb767E
         U _ZN52_$LT$u64$u20$as$u20$core..ops..bit..BitAndAssign$GT$13bitand_assign17hfd81b8b11869e611E
         U _ZN54_$LT$u64$u20$as$u20$core..ops..bit..Shl$LT$u32$GT$$GT$3shl17ha0f1f7c4d1b71c6fE
         U _ZN54_$LT$u64$u20$as$u20$core..ops..bit..Shr$LT$u32$GT$$GT$3shr17h86eb4bdcd62c3507E
         U _ZN55_$LT$f32$u20$as$u20$compiler_builtins..float..Float$GT$4repr17h8f5ffbf6b0078abdE
         U _ZN55_$LT$f32$u20$as$u20$compiler_builtins..float..Float$GT$9from_repr17ha1a3015a145c5e73E
         U _ZN55_$LT$f32$u20$as$u20$compiler_builtins..float..Float$GT$9normalize17h3b07022c817f6bf0E
         U _ZN55_$LT$f64$u20$as$u20$compiler_builtins..float..Float$GT$4repr17h0758fb00ae3e2115E
         U _ZN55_$LT$f64$u20$as$u20$compiler_builtins..float..Float$GT$9from_repr17h6e7c91fe7cbb7eecE
         U _ZN55_$LT$f64$u20$as$u20$compiler_builtins..float..Float$GT$9normalize17h71c414bb21f0351bE
         U _ZN55_$LT$u32$u20$as$u20$compiler_builtins..int..WideInt$GT$15wide_shift_left17h5f44681acaac1703E
         U _ZN55_$LT$u32$u20$as$u20$compiler_builtins..int..WideInt$GT$28wide_shift_right_with_sticky17ha5b5707ac5c98275E
         U _ZN55_$LT$u32$u20$as$u20$compiler_builtins..int..WideInt$GT$8wide_mul17h89a7749769312b40E
         U _ZN55_$LT$u64$u20$as$u20$compiler_builtins..int..WideInt$GT$15wide_shift_left17h157b1ea173593884E
         U _ZN55_$LT$u64$u20$as$u20$compiler_builtins..int..WideInt$GT$28wide_shift_right_with_sticky17h82de879c26406354E
         U _ZN55_$LT$u64$u20$as$u20$compiler_builtins..int..WideInt$GT$8wide_mul17h681ab07cee7bbea5E
         U _ZN67_$LT$i32$u20$as$u20$compiler_builtins..int..CastInto$LT$u32$GT$$GT$4cast17h1a9ddc161d6f5a2dE
         U _ZN67_$LT$i32$u20$as$u20$compiler_builtins..int..CastInto$LT$u64$GT$$GT$4cast17h1d575389270f9848E
         U _ZN67_$LT$u32$u20$as$u20$compiler_builtins..int..CastInto$LT$i32$GT$$GT$4cast17h432e5905f96e2733E
         U _ZN67_$LT$u32$u20$as$u20$compiler_builtins..int..CastInto$LT$u32$GT$$GT$4cast17h143e8637064b7490E
         U _ZN67_$LT$u32$u20$as$u20$compiler_builtins..int..CastInto$LT$u64$GT$$GT$4cast17h20cf968f480ff57bE
         U _ZN67_$LT$u64$u20$as$u20$compiler_builtins..int..CastInto$LT$i32$GT$$GT$4cast17he77b25eee3967605E
00000000 T __muldf3
00000000 T __mulsf3

compiler_builtins-f5ff472cd7010299.compiler_builtins.eq9b4eau-cgu.7.rcgu.o:
         U _GLOBAL_OFFSET_TABLE_
00000000 T _ZN4core3num21_$LT$impl$u20$i32$GT$11checked_div17hab358294bd1cbd86E
00000000 T _ZN4core3num21_$LT$impl$u20$i32$GT$11checked_rem17h87d77a1ebfe8fb65E
00000000 T _ZN4core3num21_$LT$impl$u20$i32$GT$12wrapping_add17h8a83867ed9955404E
00000000 T _ZN4core3num21_$LT$impl$u20$i32$GT$12wrapping_mul17h3e86d751c71a8feaE
00000000 T _ZN4core3num21_$LT$impl$u20$i32$GT$12wrapping_neg17h723e9eec2f8bb73aE
00000000 T _ZN4core3num21_$LT$impl$u20$i32$GT$12wrapping_shl17h5eedd3812e3aeda0E
00000000 T _ZN4core3num21_$LT$impl$u20$i32$GT$12wrapping_sub17hac938fb0d85988d4E
00000000 T _ZN4core3num21_$LT$impl$u20$i32$GT$13leading_zeros17hb1977141ded78971E
00000000 T _ZN4core3num21_$LT$impl$u20$i32$GT$15overflowing_add17hcee6ce6544925912E
00000000 t _ZN4core3num21_$LT$impl$u20$i32$GT$15overflowing_neg17he5beac0d90039c8dE
00000000 T _ZN4core3num21_$LT$impl$u20$i32$GT$9max_value17hdcf171284b3046b8E
00000000 T _ZN4core3num21_$LT$impl$u20$i32$GT$9min_value17h6b59c41173cdbbefE
00000000 T _ZN4core3num21_$LT$impl$u20$i64$GT$11checked_div17hb92a79a2faa9d674E
00000000 T _ZN4core3num21_$LT$impl$u20$i64$GT$11checked_rem17hf313412ce937906cE
00000000 T _ZN4core3num21_$LT$impl$u20$i64$GT$12wrapping_add17h8a899b52be193b8dE
00000000 T _ZN4core3num21_$LT$impl$u20$i64$GT$12wrapping_mul17hb00bd87292414becE
00000000 T _ZN4core3num21_$LT$impl$u20$i64$GT$12wrapping_neg17h1621258e0766e48fE
00000000 T _ZN4core3num21_$LT$impl$u20$i64$GT$12wrapping_shl17hc5cc6a5aa50813feE
00000000 T _ZN4core3num21_$LT$impl$u20$i64$GT$12wrapping_sub17h0e372e194d86c093E
00000000 T _ZN4core3num21_$LT$impl$u20$i64$GT$13leading_zeros17h1d2dccb16453aea0E
00000000 T _ZN4core3num21_$LT$impl$u20$i64$GT$15overflowing_add17heed6bd329ce639c0E
00000000 t _ZN4core3num21_$LT$impl$u20$i64$GT$15overflowing_neg17h79fc0d5b1d10cc6dE
00000000 T _ZN4core3num21_$LT$impl$u20$i64$GT$9max_value17hbd9868e9efbc3155E
00000000 T _ZN4core3num21_$LT$impl$u20$i64$GT$9min_value17h8e436202275f1a8fE
00000000 T _ZN4core3num21_$LT$impl$u20$u32$GT$11checked_div17ha938576bb7ad78f6E
00000000 T _ZN4core3num21_$LT$impl$u20$u32$GT$11checked_rem17hd40d287e96f34825E
00000000 T _ZN4core3num21_$LT$impl$u20$u32$GT$12wrapping_add17h98ea2ee4ee785327E
00000000 T _ZN4core3num21_$LT$impl$u20$u32$GT$12wrapping_mul17h833c0953fbf53fd3E
00000000 T _ZN4core3num21_$LT$impl$u20$u32$GT$12wrapping_shl17heca854c4fa0fba53E
00000000 T _ZN4core3num21_$LT$impl$u20$u32$GT$12wrapping_sub17h585e80f4bf5adf4dE
00000000 T _ZN4core3num21_$LT$impl$u20$u32$GT$13leading_zeros17h938397eb22aa8e51E
00000000 T _ZN4core3num21_$LT$impl$u20$u32$GT$14trailing_zeros17h7f6643341e7b2718E
00000000 T _ZN4core3num21_$LT$impl$u20$u32$GT$15is_power_of_two17h376cdff01255effbE
00000000 T _ZN4core3num21_$LT$impl$u20$u32$GT$15overflowing_add17hba1b5b378652e4c4E
00000000 T _ZN4core3num21_$LT$impl$u20$u32$GT$9max_value17hf2f3c7ea034e0411E
00000000 T _ZN4core3num21_$LT$impl$u20$u32$GT$9min_value17ha342cb6b78ac7ae1E
00000000 T _ZN4core3num21_$LT$impl$u20$u64$GT$11checked_div17h9d0ecce9f016d305E
00000000 T _ZN4core3num21_$LT$impl$u20$u64$GT$11checked_rem17hcd6dd19bbd7ade82E
00000000 T _ZN4core3num21_$LT$impl$u20$u64$GT$12wrapping_add17he6a95ba2a42002b8E
00000000 T _ZN4core3num21_$LT$impl$u20$u64$GT$12wrapping_mul17ha18a44789c066a74E
00000000 T _ZN4core3num21_$LT$impl$u20$u64$GT$12wrapping_shl17hddfe6d5f449da5ceE
00000000 T _ZN4core3num21_$LT$impl$u20$u64$GT$12wrapping_sub17hc1471035f96d6b64E
00000000 T _ZN4core3num21_$LT$impl$u20$u64$GT$13leading_zeros17h39f42c9f391bd6e5E
00000000 T _ZN4core3num21_$LT$impl$u20$u64$GT$14trailing_zeros17h7c4feaee3cadf21eE
00000000 T _ZN4core3num21_$LT$impl$u20$u64$GT$15is_power_of_two17h0d950ade29379d25E
00000000 T _ZN4core3num21_$LT$impl$u20$u64$GT$15overflowing_add17hd1625256d20ddd9fE
00000000 T _ZN4core3num21_$LT$impl$u20$u64$GT$9max_value17hfd974d533f760c91E
00000000 T _ZN4core3num21_$LT$impl$u20$u64$GT$9min_value17h55af64204565c230E
00000000 T _ZN4core3num22_$LT$impl$u20$i128$GT$11checked_div17h058d405bfa0cd74cE
00000000 T _ZN4core3num22_$LT$impl$u20$i128$GT$11checked_rem17ha5b951bacbf649e6E
00000000 T _ZN4core3num22_$LT$impl$u20$i128$GT$12wrapping_add17hb97c250512cfb052E
00000000 T _ZN4core3num22_$LT$impl$u20$i128$GT$12wrapping_mul17h4805e6d6f9595415E
00000000 T _ZN4core3num22_$LT$impl$u20$i128$GT$12wrapping_shl17h376c8419e8d740b9E
00000000 T _ZN4core3num22_$LT$impl$u20$i128$GT$12wrapping_sub17h01bde137435c3f7aE
00000000 T _ZN4core3num22_$LT$impl$u20$i128$GT$13leading_zeros17h9895b8e7b1cb2456E
00000000 T _ZN4core3num22_$LT$impl$u20$i128$GT$15overflowing_add17h9fcd76ffa47366a0E
00000000 T _ZN4core3num22_$LT$impl$u20$i128$GT$9max_value17hf236399d178bec9dE
00000000 T _ZN4core3num22_$LT$impl$u20$i128$GT$9min_value17hc08382d13126ffd5E
00000000 T _ZN4core3num22_$LT$impl$u20$u128$GT$11checked_div17hb402676a359b78e8E
00000000 T _ZN4core3num22_$LT$impl$u20$u128$GT$11checked_rem17hfc55d24ea3464263E
00000000 T _ZN4core3num22_$LT$impl$u20$u128$GT$12wrapping_add17h61ae822081154054E
00000000 T _ZN4core3num22_$LT$impl$u20$u128$GT$12wrapping_mul17h184261944fdc84e4E
00000000 T _ZN4core3num22_$LT$impl$u20$u128$GT$12wrapping_shl17h0af8a8f845568f90E
00000000 T _ZN4core3num22_$LT$impl$u20$u128$GT$12wrapping_sub17h1642a5fd88095adeE
00000000 T _ZN4core3num22_$LT$impl$u20$u128$GT$13leading_zeros17hbc790cf54f1d9129E
00000000 T _ZN4core3num22_$LT$impl$u20$u128$GT$15overflowing_add17he888ad697c66d6baE
00000000 T _ZN4core3num22_$LT$impl$u20$u128$GT$9max_value17h729188e480583799E
00000000 T _ZN4core3num22_$LT$impl$u20$u128$GT$9min_value17heda195796109c87aE
00000000 T _ZN4core3num64_$LT$impl$u20$core..convert..From$LT$u32$GT$$u20$for$u20$u64$GT$4from17hc19d7050ed3122caE
00000000 T _ZN4core3num65_$LT$impl$u20$core..convert..From$LT$u64$GT$$u20$for$u20$u128$GT$4from17h050053b780d7788fE
         U __divdi3
         U __divti3
         U __moddi3
         U __modti3
         U __udivdi3
         U __udivti3
         U __umoddi3
         U __umodti3

compiler_builtins-f5ff472cd7010299.compiler_builtins.eq9b4eau-cgu.8.rcgu.o:
         U _GLOBAL_OFFSET_TABLE_
00000000 T _ZN17compiler_builtins3int5shift13rust_i128_shl17hc0bb9328bb5ba834E
00000000 T _ZN17compiler_builtins3int5shift13rust_i128_shr17ha53384331fe222d2E
00000000 T _ZN17compiler_builtins3int5shift13rust_u128_shl17h57c96f40338fb70eE
00000000 T _ZN17compiler_builtins3int5shift13rust_u128_shr17h3bc1c6161bf09e7dE
00000000 T _ZN17compiler_builtins3int5shift14rust_i128_shlo17hf0d3ceda1ec83ef5E
00000000 T _ZN17compiler_builtins3int5shift14rust_i128_shro17h1b37ec88c78eb483E
00000000 T _ZN17compiler_builtins3int5shift14rust_u128_shlo17h88fd1e9259febb80E
00000000 T _ZN17compiler_builtins3int5shift14rust_u128_shro17h98b09a19dd47a49aE
00000000 T _ZN17compiler_builtins3int5shift4Ashl4ashl17h194db2e386825818E
00000000 T _ZN17compiler_builtins3int5shift4Ashl4ashl17hfb89c3ea1a11ce76E
00000000 T _ZN17compiler_builtins3int5shift4Ashr4ashr17h1f46a4efa69979b3E
00000000 T _ZN17compiler_builtins3int5shift4Ashr4ashr17hce4e150e028fec3dE
00000000 T _ZN17compiler_builtins3int5shift4Lshr4lshr17h85ff592415e73b53E
00000000 T _ZN17compiler_builtins3int5shift4Lshr4lshr17heb9e5e7f9fc4cc33E
         U _ZN43_$LT$u32$u20$as$u20$core..ops..bit..Shl$GT$3shl17h634ba576376b5bb5E
         U _ZN43_$LT$u32$u20$as$u20$core..ops..bit..Shr$GT$3shr17h03da365e85e90f46E
         U _ZN45_$LT$u32$u20$as$u20$core..ops..bit..BitOr$GT$5bitor17hc40cb5a44a2a7fb7E
         U _ZN45_$LT$u64$u20$as$u20$core..ops..bit..BitOr$GT$5bitor17h930540376ee8bfa1E
         U _ZN51_$LT$i32$u20$as$u20$compiler_builtins..int..Int$GT$8unsigned17h646b945df174b49aE
         U _ZN51_$LT$i64$u20$as$u20$compiler_builtins..int..Int$GT$8unsigned17h262c2b0f0bfc217dE
         U _ZN54_$LT$i32$u20$as$u20$core..ops..bit..Shr$LT$u32$GT$$GT$3shr17hd21a430ff92eba90E
         U _ZN54_$LT$i64$u20$as$u20$core..ops..bit..Shr$LT$u32$GT$$GT$3shr17h6071a342c1a33f50E
         U _ZN54_$LT$u64$u20$as$u20$core..ops..bit..Shl$LT$u32$GT$$GT$3shl17ha0f1f7c4d1b71c6fE
         U _ZN54_$LT$u64$u20$as$u20$core..ops..bit..Shr$LT$u32$GT$$GT$3shr17h86eb4bdcd62c3507E
         U _ZN56_$LT$i64$u20$as$u20$compiler_builtins..int..LargeInt$GT$10from_parts17h4e91697c181056e9E
         U _ZN56_$LT$i64$u20$as$u20$compiler_builtins..int..LargeInt$GT$3low17hda86ee8397c06d52E
         U _ZN56_$LT$i64$u20$as$u20$compiler_builtins..int..LargeInt$GT$4high17he407240f3c1791e6E
         U _ZN56_$LT$u64$u20$as$u20$compiler_builtins..int..LargeInt$GT$10from_parts17h858d355704851ebeE
         U _ZN56_$LT$u64$u20$as$u20$compiler_builtins..int..LargeInt$GT$3low17hd2cc09b79e4e8b0aE
         U _ZN56_$LT$u64$u20$as$u20$compiler_builtins..int..LargeInt$GT$4high17h236f7e5c27552c7bE
         U _ZN57_$LT$i128$u20$as$u20$compiler_builtins..int..LargeInt$GT$10from_parts17he0fa600b3e436cb0E
         U _ZN57_$LT$i128$u20$as$u20$compiler_builtins..int..LargeInt$GT$3low17hd753107fc9efe2acE
         U _ZN57_$LT$i128$u20$as$u20$compiler_builtins..int..LargeInt$GT$4high17hd9852ca2d6ceb90bE
         U _ZN57_$LT$u128$u20$as$u20$compiler_builtins..int..LargeInt$GT$10from_parts17h4897306acc977ceaE
         U _ZN57_$LT$u128$u20$as$u20$compiler_builtins..int..LargeInt$GT$3low17h1f0f924b7197fa5dE
         U _ZN57_$LT$u128$u20$as$u20$compiler_builtins..int..LargeInt$GT$4high17h566f29a48d37f5d8E
00000000 T __ashldi3
00000000 T __ashlti3
00000000 T __ashrdi3
00000000 T __ashrti3
00000000 T __lshrdi3
00000000 T __lshrti3

compiler_builtins-f5ff472cd7010299.compiler_builtins.eq9b4eau-cgu.9.rcgu.o:
         U _GLOBAL_OFFSET_TABLE_
00000000 t _ZN17compiler_builtins5float3cmp3cmp17h1d12aa80f7e09d7aE
00000000 t _ZN17compiler_builtins5float3cmp3cmp17hc1d0f4cb84e7bb68E
00000000 t _ZN17compiler_builtins5float3cmp5unord17h52036b41f2716232E
00000000 t _ZN17compiler_builtins5float3cmp5unord17h669c69f45725f2afE
00000000 t _ZN17compiler_builtins5float3cmp6Result9to_ge_abi17h95f7e24978467072E
00000000 t _ZN17compiler_builtins5float3cmp6Result9to_le_abi17h1b4bcd96c55ce7ecE
         U _ZN45_$LT$u32$u20$as$u20$core..ops..arith..Sub$GT$3sub17h9ca565dce5541067E
         U _ZN45_$LT$u32$u20$as$u20$core..ops..bit..BitOr$GT$5bitor17hc40cb5a44a2a7fb7E
         U _ZN45_$LT$u64$u20$as$u20$core..ops..arith..Sub$GT$3sub17h3a97c37b90d8418bE
         U _ZN45_$LT$u64$u20$as$u20$core..ops..bit..BitOr$GT$5bitor17h930540376ee8bfa1E
         U _ZN46_$LT$i32$u20$as$u20$core..ops..bit..BitAnd$GT$6bitand17h995e0283f01c209fE
         U _ZN46_$LT$i64$u20$as$u20$core..ops..bit..BitAnd$GT$6bitand17h250509f5f858409dE
         U _ZN46_$LT$u32$u20$as$u20$core..ops..bit..BitAnd$GT$6bitand17h1773f5b7c3d72ad6E
         U _ZN46_$LT$u64$u20$as$u20$core..ops..bit..BitAnd$GT$6bitand17h40c9a4258b29d734E
         U _ZN4core3cmp5impls54_$LT$impl$u20$core..cmp..PartialEq$u20$for$u20$i32$GT$2eq17h62a7037da7b0bb17E
         U _ZN4core3cmp5impls54_$LT$impl$u20$core..cmp..PartialEq$u20$for$u20$i64$GT$2eq17h5232208d8bbc2a83E
         U _ZN4core3cmp5impls54_$LT$impl$u20$core..cmp..PartialEq$u20$for$u20$u32$GT$2eq17h350742df64b83c1fE
         U _ZN4core3cmp5impls54_$LT$impl$u20$core..cmp..PartialEq$u20$for$u20$u64$GT$2eq17hbacd82780d9a3b2aE
         U _ZN4core3cmp5impls55_$LT$impl$u20$core..cmp..PartialOrd$u20$for$u20$i32$GT$2ge17h46afd6d42dadc147E
         U _ZN4core3cmp5impls55_$LT$impl$u20$core..cmp..PartialOrd$u20$for$u20$i32$GT$2gt17he25fbdfc8af7cf57E
         U _ZN4core3cmp5impls55_$LT$impl$u20$core..cmp..PartialOrd$u20$for$u20$i32$GT$2lt17h5fe5f03b2047f092E
         U _ZN4core3cmp5impls55_$LT$impl$u20$core..cmp..PartialOrd$u20$for$u20$i64$GT$2ge17ha56dcae903c33118E
         U _ZN4core3cmp5impls55_$LT$impl$u20$core..cmp..PartialOrd$u20$for$u20$i64$GT$2gt17h7bfce0d7b8f2996bE
         U _ZN4core3cmp5impls55_$LT$impl$u20$core..cmp..PartialOrd$u20$for$u20$i64$GT$2lt17ha467e06c5eb623caE
         U _ZN4core3cmp5impls55_$LT$impl$u20$core..cmp..PartialOrd$u20$for$u20$u32$GT$2gt17hbf41f2205478e0bfE
         U _ZN4core3cmp5impls55_$LT$impl$u20$core..cmp..PartialOrd$u20$for$u20$u64$GT$2gt17h5e3c82980d81afd5E
         U _ZN55_$LT$f32$u20$as$u20$compiler_builtins..float..Float$GT$11signed_repr17h04584599f6b56fb2E
         U _ZN55_$LT$f32$u20$as$u20$compiler_builtins..float..Float$GT$4repr17h8f5ffbf6b0078abdE
         U _ZN55_$LT$f64$u20$as$u20$compiler_builtins..float..Float$GT$11signed_repr17hede7e7c19ee92db1E
         U _ZN55_$LT$f64$u20$as$u20$compiler_builtins..float..Float$GT$4repr17h0758fb00ae3e2115E
00000000 T __eqdf2
00000000 T __eqsf2
00000000 T __gedf2
00000000 T __gesf2
00000000 T __gtdf2
00000000 T __gtsf2
00000000 T __ledf2
00000000 T __lesf2
00000000 T __ltdf2
00000000 T __ltsf2
00000000 T __nedf2
00000000 T __nesf2
00000000 T __unorddf2
00000000 T __unordsf2
