In archive target/i686-custom/release/libjos.a:

jos-ac3f4fbfcf950cc0.jos.ex6w5pzl-cgu.1.rcgu.o:     file format elf32-i386

SYMBOL TABLE:
00000000 l    df *ABS*	00000000 jos.ex6w5pzl-cgu.1
00000000 g     F .text._kmain	000002c2 _kmain
00000000 g     F .text.abort	00000002 abort
00000000 g     F .text.memcpy	0000001f memcpy



compiler_builtins-0f031f8921b293bf.compiler_builtins.e6bpkb26-cgu.0.rcgu.o:     file format elf32-i386

SYMBOL TABLE:
00000000 l    df *ABS*	00000000 compiler_builtins.e6bpkb26-cgu.0
00000000 g     F .text.__fixdfdi	000000bd .hidden __fixdfdi
00000000 g     F .text.__fixdfsi	00000078 .hidden __fixdfsi
00000000 g     F .text.__fixdfti	000001aa .hidden __fixdfti
00000000 g     F .text.__fixsfdi	00000096 .hidden __fixsfdi
00000000 g     F .text.__fixsfsi	0000005e .hidden __fixsfsi
00000000 g     F .text.__fixsfti	00000179 .hidden __fixsfti
00000000 g     F .text.__fixunsdfdi	000000a1 .hidden __fixunsdfdi
00000000 g     F .text.__fixunsdfsi	00000075 .hidden __fixunsdfsi
00000000 g     F .text.__fixunsdfti	0000018b .hidden __fixunsdfti
00000000 g     F .text.__fixunssfdi	0000007c .hidden __fixunssfdi
00000000 g     F .text.__fixunssfsi	0000005e .hidden __fixunssfsi
00000000 g     F .text.__fixunssfti	0000015a .hidden __fixunssfti
00000000 g     F .text.__floatdidf	0000012d .hidden __floatdidf
00000000 g     F .text.__floatdisf	0000011d .hidden __floatdisf
00000000 g     F .text.__floatsidf	0000006f .hidden __floatsidf
00000000 g     F .text.__floatsisf	000000bc .hidden __floatsisf
00000000 g     F .text.__floattidf	00000369 .hidden __floattidf
00000000 g     F .text.__floattisf	000002f7 .hidden __floattisf
00000000 g     F .text.__floatundidf	0000010b .hidden __floatundidf
00000000 g     F .text.__floatundisf	000000fc .hidden __floatundisf
00000000 g     F .text.__floatunsidf	0000005c .hidden __floatunsidf
00000000 g     F .text.__floatunsisf	000000a7 .hidden __floatunsisf
00000000 g     F .text.__floatuntidf	00000322 .hidden __floatuntidf
00000000 g     F .text.__floatuntisf	000002e8 .hidden __floatuntisf



compiler_builtins-0f031f8921b293bf.compiler_builtins.e6bpkb26-cgu.1.rcgu.o:     file format elf32-i386

SYMBOL TABLE:
00000000 l    df *ABS*	00000000 compiler_builtins.e6bpkb26-cgu.1
00000000 l       .rodata.cst4	00000000 .LCPI0_0
00000004 l       .rodata.cst4	00000000 .LCPI1_0
00000000         *UND*	00000000 _GLOBAL_OFFSET_TABLE_
00000000 g     F .text.__adddf3	00000494 .hidden __adddf3
00000000 g     F .text.__addsf3	000002a5 .hidden __addsf3



compiler_builtins-0f031f8921b293bf.compiler_builtins.e6bpkb26-cgu.10.rcgu.o:     file format elf32-i386

SYMBOL TABLE:
00000000 l    df *ABS*	00000000 compiler_builtins.e6bpkb26-cgu.10
00000000 g     F .text._ZN17compiler_builtins3int6addsub13rust_i128_add17hf8253bf30a9435aeE	0000003c .hidden _ZN17compiler_builtins3int6addsub13rust_i128_add17hf8253bf30a9435aeE
00000000 g     F .text._ZN17compiler_builtins3int6addsub13rust_i128_sub17h3263d0bbbb48e7d3E	00000052 .hidden _ZN17compiler_builtins3int6addsub13rust_i128_sub17h3263d0bbbb48e7d3E
00000000 g     F .text._ZN17compiler_builtins3int6addsub13rust_i128_add17hf8253bf30a9435aeE	0000003c .hidden _ZN17compiler_builtins3int6addsub13rust_u128_add17h6274e258752e69e7E
00000000 g     F .text._ZN17compiler_builtins3int6addsub13rust_i128_sub17h3263d0bbbb48e7d3E	00000052 .hidden _ZN17compiler_builtins3int6addsub13rust_u128_sub17h2d08e7be39e971f6E
00000000 g     F .text._ZN17compiler_builtins3int6addsub14rust_i128_addo17hbc118647fcb26020E	0000006f .hidden _ZN17compiler_builtins3int6addsub14rust_i128_addo17hbc118647fcb26020E
00000000 g     F .text._ZN17compiler_builtins3int6addsub14rust_i128_subo17he3befcf937f0cf48E	0000007c .hidden _ZN17compiler_builtins3int6addsub14rust_i128_subo17he3befcf937f0cf48E
00000000 g     F .text._ZN17compiler_builtins3int6addsub14rust_u128_addo17h2143f8c09d5c311bE	0000005a .hidden _ZN17compiler_builtins3int6addsub14rust_u128_addo17h2143f8c09d5c311bE
00000000 g     F .text._ZN17compiler_builtins3int6addsub14rust_u128_subo17h852f7149a750e91dE	00000067 .hidden _ZN17compiler_builtins3int6addsub14rust_u128_subo17h852f7149a750e91dE



compiler_builtins-0f031f8921b293bf.compiler_builtins.e6bpkb26-cgu.11.rcgu.o:     file format elf32-i386

SYMBOL TABLE:
00000000 l    df *ABS*	00000000 compiler_builtins.e6bpkb26-cgu.11
00000000 g     F .text.__extendsfdf2	000000a5 .hidden __extendsfdf2



compiler_builtins-0f031f8921b293bf.compiler_builtins.e6bpkb26-cgu.12.rcgu.o:     file format elf32-i386

SYMBOL TABLE:
00000000 l    df *ABS*	00000000 compiler_builtins.e6bpkb26-cgu.12
00000000 g     F .text.memcmp	00000043 .hidden memcmp
00000000 g     F .text.memcpy	0000002f .hidden memcpy
00000000 g     F .text.memmove	0000004f .hidden memmove
00000000 g     F .text.memset	00000028 .hidden memset



compiler_builtins-0f031f8921b293bf.compiler_builtins.e6bpkb26-cgu.13.rcgu.o:     file format elf32-i386

SYMBOL TABLE:
00000000 l    df *ABS*	00000000 compiler_builtins.e6bpkb26-cgu.13
00000000 g     F .text._ZN55_$LT$f32$u20$as$u20$compiler_builtins..float..Float$GT$10from_parts17ha14286f2b1ba9ab3E	0000002a .hidden _ZN55_$LT$f32$u20$as$u20$compiler_builtins..float..Float$GT$10from_parts17ha14286f2b1ba9ab3E
00000000 g     F .text._ZN55_$LT$f32$u20$as$u20$compiler_builtins..float..Float$GT$11signed_repr17hb4a27ddcb66b1678E	00000005 .hidden _ZN55_$LT$f32$u20$as$u20$compiler_builtins..float..Float$GT$11signed_repr17hb4a27ddcb66b1678E
00000000 g     F .text._ZN55_$LT$f32$u20$as$u20$compiler_builtins..float..Float$GT$11signed_repr17hb4a27ddcb66b1678E	00000005 .hidden _ZN55_$LT$f32$u20$as$u20$compiler_builtins..float..Float$GT$4repr17h89e564349f149784E
00000000 g     F .text._ZN55_$LT$f32$u20$as$u20$compiler_builtins..float..Float$GT$9from_repr17h8ee535ee4966c106E	00000005 .hidden _ZN55_$LT$f32$u20$as$u20$compiler_builtins..float..Float$GT$9from_repr17h8ee535ee4966c106E
00000000 g     F .text._ZN55_$LT$f32$u20$as$u20$compiler_builtins..float..Float$GT$9normalize17h47d271ecb21094ccE	00000022 .hidden _ZN55_$LT$f32$u20$as$u20$compiler_builtins..float..Float$GT$9normalize17h47d271ecb21094ccE
00000000 g     F .text._ZN55_$LT$f64$u20$as$u20$compiler_builtins..float..Float$GT$10from_parts17hc2d5342a5c7dfe23E	00000037 .hidden _ZN55_$LT$f64$u20$as$u20$compiler_builtins..float..Float$GT$10from_parts17hc2d5342a5c7dfe23E
00000000 g     F .text._ZN55_$LT$f64$u20$as$u20$compiler_builtins..float..Float$GT$11signed_repr17h61459390ff8d0d8aE	00000009 .hidden _ZN55_$LT$f64$u20$as$u20$compiler_builtins..float..Float$GT$11signed_repr17h61459390ff8d0d8aE
00000000 g     F .text._ZN55_$LT$f64$u20$as$u20$compiler_builtins..float..Float$GT$11signed_repr17h61459390ff8d0d8aE	00000009 .hidden _ZN55_$LT$f64$u20$as$u20$compiler_builtins..float..Float$GT$4repr17hfbd9050db2e65a2eE
00000000 g     F .text._ZN55_$LT$f64$u20$as$u20$compiler_builtins..float..Float$GT$9from_repr17h88960886f5b25120E	00000005 .hidden _ZN55_$LT$f64$u20$as$u20$compiler_builtins..float..Float$GT$9from_repr17h88960886f5b25120E
00000000 g     F .text._ZN55_$LT$f64$u20$as$u20$compiler_builtins..float..Float$GT$9normalize17h30d081fb4378dde6E	00000047 .hidden _ZN55_$LT$f64$u20$as$u20$compiler_builtins..float..Float$GT$9normalize17h30d081fb4378dde6E



compiler_builtins-0f031f8921b293bf.compiler_builtins.e6bpkb26-cgu.14.rcgu.o:     file format elf32-i386

SYMBOL TABLE:
00000000 l    df *ABS*	00000000 compiler_builtins.e6bpkb26-cgu.14
00000000 g     F .text.__powidf2	0000005e .hidden __powidf2
00000000 g     F .text.__powisf2	0000005e .hidden __powisf2



compiler_builtins-0f031f8921b293bf.compiler_builtins.e6bpkb26-cgu.15.rcgu.o:     file format elf32-i386

SYMBOL TABLE:
00000000 l    df *ABS*	00000000 compiler_builtins.e6bpkb26-cgu.15
00000000         *UND*	00000000 _GLOBAL_OFFSET_TABLE_
00000000 g     F .text._ZN17compiler_builtins5abort17h65d62bcf0ae4c7d4E	00000004 .hidden _ZN17compiler_builtins5abort17h65d62bcf0ae4c7d4E
00000000         *UND*	00000000 __adddf3
00000000         *UND*	00000000 __addsf3
00000000 g     F .text.__rust_probestack	0000002f .hidden __rust_probestack
00000000 g     F .text.__subdf3	00000036 .hidden __subdf3
00000000 g     F .text.__subsf3	0000002e .hidden __subsf3



compiler_builtins-0f031f8921b293bf.compiler_builtins.e6bpkb26-cgu.2.rcgu.o:     file format elf32-i386

SYMBOL TABLE:
00000000 l    df *ABS*	00000000 compiler_builtins.e6bpkb26-cgu.2
00000000 l       .rodata.cst4	00000000 .LCPI0_0
00000004 l       .rodata.cst4	00000000 .LCPI1_0
00000000         *UND*	00000000 _GLOBAL_OFFSET_TABLE_
00000000 g     F .text.__divdf3	00000548 .hidden __divdf3
00000000 g     F .text.__divsf3	000002c1 .hidden __divsf3



compiler_builtins-0f031f8921b293bf.compiler_builtins.e6bpkb26-cgu.3.rcgu.o:     file format elf32-i386

SYMBOL TABLE:
00000000 l    df *ABS*	00000000 compiler_builtins.e6bpkb26-cgu.3
00000000         *UND*	00000000 _GLOBAL_OFFSET_TABLE_
00000000 g     F .text._ZN17compiler_builtins3int4udiv13rust_u128_div17h4426e79d08e17d86E	0000006d .hidden _ZN17compiler_builtins3int4udiv13rust_u128_div17h4426e79d08e17d86E
00000000 g     F .text._ZN17compiler_builtins3int4udiv13rust_u128_rem17h59ef2b8b8d206c14E	00000097 .hidden _ZN17compiler_builtins3int4udiv13rust_u128_rem17h59ef2b8b8d206c14E
00000000 g     F .text.__udivdi3	0000002f .hidden __udivdi3
00000000 g     F .text.__udivmoddi4	00000280 .hidden __udivmoddi4
00000000 g     F .text.__udivmodsi4	000000ab .hidden __udivmodsi4
00000000 g     F .text.__udivmodti4	000007c7 .hidden __udivmodti4
00000000 g     F .text.__udivsi3	00000089 .hidden __udivsi3
00000000 g     F .text.__udivti3	0000006d .hidden __udivti3
00000000 g     F .text.__umoddi3	00000055 .hidden __umoddi3
00000000 g     F .text.__umodsi3	000000a3 .hidden __umodsi3
00000000 g     F .text.__umodti3	00000097 .hidden __umodti3



compiler_builtins-0f031f8921b293bf.compiler_builtins.e6bpkb26-cgu.4.rcgu.o:     file format elf32-i386

SYMBOL TABLE:
00000000 l    df *ABS*	00000000 compiler_builtins.e6bpkb26-cgu.4
00000000         *UND*	00000000 _GLOBAL_OFFSET_TABLE_
00000000 g     F .text._ZN17compiler_builtins3int3mul13rust_i128_mul17h6dd861b060c600a3E	000000b2 .hidden _ZN17compiler_builtins3int3mul13rust_i128_mul17h6dd861b060c600a3E
00000000 g     F .text._ZN17compiler_builtins3int3mul13rust_i128_mul17h6dd861b060c600a3E	000000b2 .hidden _ZN17compiler_builtins3int3mul13rust_u128_mul17h3da35b96a96dbb03E
00000000 g     F .text._ZN17compiler_builtins3int3mul14rust_i128_mulo17h43e424ca0a49c187E	00000361 .hidden _ZN17compiler_builtins3int3mul14rust_i128_mulo17h43e424ca0a49c187E
00000000 g     F .text._ZN17compiler_builtins3int3mul14rust_u128_mulo17h712602db945e254aE	00000140 .hidden _ZN17compiler_builtins3int3mul14rust_u128_mulo17h712602db945e254aE
00000000         *UND*	00000000 __divdi3
00000000         *UND*	00000000 __divti3
00000000 g     F .text.__muldi3	00000065 .hidden __muldi3
00000000 g     F .text.__mulodi4	0000015c .hidden __mulodi4
00000000 g     F .text.__mulosi4	00000095 .hidden __mulosi4
00000000 g     F .text.__muloti4	0000037e .hidden __muloti4
00000000 g     F .text._ZN17compiler_builtins3int3mul13rust_i128_mul17h6dd861b060c600a3E	000000b2 .hidden __multi3
00000000         *UND*	00000000 __udivdi3
00000000         *UND*	00000000 __udivti3



compiler_builtins-0f031f8921b293bf.compiler_builtins.e6bpkb26-cgu.5.rcgu.o:     file format elf32-i386

SYMBOL TABLE:
00000000 l    df *ABS*	00000000 compiler_builtins.e6bpkb26-cgu.5
00000000 l       .rodata.cst4	00000000 .LCPI0_0
00000004 l       .rodata.cst4	00000000 .LCPI1_0
00000000         *UND*	00000000 _GLOBAL_OFFSET_TABLE_
00000000 g     F .text.__muldf3	000004de .hidden __muldf3
00000000 g     F .text.__mulsf3	00000272 .hidden __mulsf3



compiler_builtins-0f031f8921b293bf.compiler_builtins.e6bpkb26-cgu.6.rcgu.o:     file format elf32-i386

SYMBOL TABLE:
00000000 l    df *ABS*	00000000 compiler_builtins.e6bpkb26-cgu.6
00000000         *UND*	00000000 _GLOBAL_OFFSET_TABLE_
00000000 g     F .text._ZN51_$LT$i32$u20$as$u20$compiler_builtins..int..Int$GT$12aborting_div17he91671bb37056f06E	00000020 .hidden _ZN51_$LT$i32$u20$as$u20$compiler_builtins..int..Int$GT$12aborting_div17he91671bb37056f06E
00000000 g     F .text._ZN51_$LT$i32$u20$as$u20$compiler_builtins..int..Int$GT$12aborting_rem17hd62384a33606ba07E	00000022 .hidden _ZN51_$LT$i32$u20$as$u20$compiler_builtins..int..Int$GT$12aborting_rem17hd62384a33606ba07E
00000000 g     F .text._ZN51_$LT$i32$u20$as$u20$compiler_builtins..int..Int$GT$12extract_sign17hda5be04bb70fc8efE	00000012 .hidden _ZN51_$LT$i32$u20$as$u20$compiler_builtins..int..Int$GT$12extract_sign17hda5be04bb70fc8efE
00000000 g     F .text._ZN51_$LT$i32$u20$as$u20$compiler_builtins..int..Int$GT$12wrapping_add17h94f91e82512fedd1E	00000009 .hidden _ZN51_$LT$i32$u20$as$u20$compiler_builtins..int..Int$GT$12wrapping_add17h94f91e82512fedd1E
00000000 g     F .text._ZN51_$LT$i32$u20$as$u20$compiler_builtins..int..Int$GT$12wrapping_mul17h8d980647fca6a4e4E	0000000a .hidden _ZN51_$LT$i32$u20$as$u20$compiler_builtins..int..Int$GT$12wrapping_mul17h8d980647fca6a4e4E
00000000 g     F .text._ZN51_$LT$i32$u20$as$u20$compiler_builtins..int..Int$GT$12wrapping_shl17h6f297a32411a28d2E	0000000b .hidden _ZN51_$LT$i32$u20$as$u20$compiler_builtins..int..Int$GT$12wrapping_shl17h6f297a32411a28d2E
00000000 g     F .text._ZN51_$LT$i32$u20$as$u20$compiler_builtins..int..Int$GT$12wrapping_sub17he25f1b067889a97cE	00000009 .hidden _ZN51_$LT$i32$u20$as$u20$compiler_builtins..int..Int$GT$12wrapping_sub17he25f1b067889a97cE
00000000 g     F .text._ZN51_$LT$i32$u20$as$u20$compiler_builtins..int..Int$GT$13from_unsigned17h0e8b3c63411f983eE	00000005 .hidden _ZN51_$LT$i32$u20$as$u20$compiler_builtins..int..Int$GT$13from_unsigned17h0e8b3c63411f983eE
00000000 g     F .text._ZN51_$LT$i32$u20$as$u20$compiler_builtins..int..Int$GT$13leading_zeros17h53243ad0806b499cE	00000015 .hidden _ZN51_$LT$i32$u20$as$u20$compiler_builtins..int..Int$GT$13leading_zeros17h53243ad0806b499cE
00000000 g     F .text._ZN51_$LT$i32$u20$as$u20$compiler_builtins..int..Int$GT$15overflowing_add17hb784eaebd0f20196E	0000000c .hidden _ZN51_$LT$i32$u20$as$u20$compiler_builtins..int..Int$GT$15overflowing_add17hb784eaebd0f20196E
00000000 g     F .text._ZN51_$LT$i32$u20$as$u20$compiler_builtins..int..Int$GT$13from_unsigned17h0e8b3c63411f983eE	00000005 .hidden _ZN51_$LT$i32$u20$as$u20$compiler_builtins..int..Int$GT$8unsigned17hdea97c1e77f8556eE
00000000 g     F .text._ZN51_$LT$i32$u20$as$u20$compiler_builtins..int..Int$GT$9from_bool17h3a6ca0dafaeb5761E	00000006 .hidden _ZN51_$LT$i32$u20$as$u20$compiler_builtins..int..Int$GT$9from_bool17h3a6ca0dafaeb5761E
00000000 g     F .text._ZN51_$LT$i32$u20$as$u20$compiler_builtins..int..Int$GT$9max_value17h64f8c218ed1fac7eE	00000006 .hidden _ZN51_$LT$i32$u20$as$u20$compiler_builtins..int..Int$GT$9max_value17h64f8c218ed1fac7eE
00000000 g     F .text._ZN51_$LT$i32$u20$as$u20$compiler_builtins..int..Int$GT$9min_value17hdfc4bb99b1796de7E	00000006 .hidden _ZN51_$LT$i32$u20$as$u20$compiler_builtins..int..Int$GT$9min_value17hdfc4bb99b1796de7E
00000000 g     F .text._ZN51_$LT$i64$u20$as$u20$compiler_builtins..int..Int$GT$12aborting_div17h9f7abd599a8bc4eaE	0000004e .hidden _ZN51_$LT$i64$u20$as$u20$compiler_builtins..int..Int$GT$12aborting_div17h9f7abd599a8bc4eaE
00000000 g     F .text._ZN51_$LT$i64$u20$as$u20$compiler_builtins..int..Int$GT$12aborting_rem17hf54d81f2dbfbd2abE	0000004e .hidden _ZN51_$LT$i64$u20$as$u20$compiler_builtins..int..Int$GT$12aborting_rem17hf54d81f2dbfbd2abE
00000000 g     F .text._ZN51_$LT$i64$u20$as$u20$compiler_builtins..int..Int$GT$12extract_sign17h1e8210210ad1f82eE	0000001d .hidden _ZN51_$LT$i64$u20$as$u20$compiler_builtins..int..Int$GT$12extract_sign17h1e8210210ad1f82eE
00000000 g     F .text._ZN51_$LT$i64$u20$as$u20$compiler_builtins..int..Int$GT$12wrapping_add17h1106bebdb6c22f40E	00000011 .hidden _ZN51_$LT$i64$u20$as$u20$compiler_builtins..int..Int$GT$12wrapping_add17h1106bebdb6c22f40E
00000000 g     F .text._ZN51_$LT$i64$u20$as$u20$compiler_builtins..int..Int$GT$12wrapping_mul17hf4692186c2ec1ca9E	0000001d .hidden _ZN51_$LT$i64$u20$as$u20$compiler_builtins..int..Int$GT$12wrapping_mul17hf4692186c2ec1ca9E
00000000 g     F .text._ZN51_$LT$i64$u20$as$u20$compiler_builtins..int..Int$GT$12wrapping_shl17h2cd07fcddc31cee1E	0000001f .hidden _ZN51_$LT$i64$u20$as$u20$compiler_builtins..int..Int$GT$12wrapping_shl17h2cd07fcddc31cee1E
00000000 g     F .text._ZN51_$LT$i64$u20$as$u20$compiler_builtins..int..Int$GT$12wrapping_sub17hfdca7339274e0662E	00000011 .hidden _ZN51_$LT$i64$u20$as$u20$compiler_builtins..int..Int$GT$12wrapping_sub17hfdca7339274e0662E
00000000 g     F .text._ZN51_$LT$i64$u20$as$u20$compiler_builtins..int..Int$GT$13from_unsigned17h99baea81e309a5e2E	00000009 .hidden _ZN51_$LT$i64$u20$as$u20$compiler_builtins..int..Int$GT$13from_unsigned17h99baea81e309a5e2E
00000000 g     F .text._ZN51_$LT$i64$u20$as$u20$compiler_builtins..int..Int$GT$13leading_zeros17h698ef84823ebfc78E	00000024 .hidden _ZN51_$LT$i64$u20$as$u20$compiler_builtins..int..Int$GT$13leading_zeros17h698ef84823ebfc78E
00000000 g     F .text._ZN51_$LT$i64$u20$as$u20$compiler_builtins..int..Int$GT$15overflowing_add17h4f20e772ec8d1e6cE	00000032 .hidden _ZN51_$LT$i64$u20$as$u20$compiler_builtins..int..Int$GT$15overflowing_add17h4f20e772ec8d1e6cE
00000000 g     F .text._ZN51_$LT$i64$u20$as$u20$compiler_builtins..int..Int$GT$13from_unsigned17h99baea81e309a5e2E	00000009 .hidden _ZN51_$LT$i64$u20$as$u20$compiler_builtins..int..Int$GT$8unsigned17h8bc4447c21259377E
00000000 g     F .text._ZN51_$LT$i64$u20$as$u20$compiler_builtins..int..Int$GT$9from_bool17hebf08f33122d2eb1E	00000008 .hidden _ZN51_$LT$i64$u20$as$u20$compiler_builtins..int..Int$GT$9from_bool17hebf08f33122d2eb1E
00000000 g     F .text._ZN51_$LT$i64$u20$as$u20$compiler_builtins..int..Int$GT$9max_value17hfb4e7feb1a35d7f9E	0000000b .hidden _ZN51_$LT$i64$u20$as$u20$compiler_builtins..int..Int$GT$9max_value17hfb4e7feb1a35d7f9E
00000000 g     F .text._ZN51_$LT$i64$u20$as$u20$compiler_builtins..int..Int$GT$9min_value17hcd1fe60c900ddd42E	00000008 .hidden _ZN51_$LT$i64$u20$as$u20$compiler_builtins..int..Int$GT$9min_value17hcd1fe60c900ddd42E
00000000 g     F .text._ZN51_$LT$u32$u20$as$u20$compiler_builtins..int..Int$GT$12aborting_div17hc432f5ba9e677ffaE	00000015 .hidden _ZN51_$LT$u32$u20$as$u20$compiler_builtins..int..Int$GT$12aborting_div17hc432f5ba9e677ffaE
00000000 g     F .text._ZN51_$LT$u32$u20$as$u20$compiler_builtins..int..Int$GT$12aborting_rem17hf04f94e6a38ec52dE	00000017 .hidden _ZN51_$LT$u32$u20$as$u20$compiler_builtins..int..Int$GT$12aborting_rem17hf04f94e6a38ec52dE
00000000 g     F .text._ZN51_$LT$u32$u20$as$u20$compiler_builtins..int..Int$GT$12extract_sign17h0984e112db21123dE	00000007 .hidden _ZN51_$LT$u32$u20$as$u20$compiler_builtins..int..Int$GT$12extract_sign17h0984e112db21123dE
00000000 g     F .text._ZN51_$LT$i32$u20$as$u20$compiler_builtins..int..Int$GT$12wrapping_add17h94f91e82512fedd1E	00000009 .hidden _ZN51_$LT$u32$u20$as$u20$compiler_builtins..int..Int$GT$12wrapping_add17h1cc4cf013d6f963bE
00000000 g     F .text._ZN51_$LT$i32$u20$as$u20$compiler_builtins..int..Int$GT$12wrapping_mul17h8d980647fca6a4e4E	0000000a .hidden _ZN51_$LT$u32$u20$as$u20$compiler_builtins..int..Int$GT$12wrapping_mul17h1e492a518386b22dE
00000000 g     F .text._ZN51_$LT$i32$u20$as$u20$compiler_builtins..int..Int$GT$12wrapping_shl17h6f297a32411a28d2E	0000000b .hidden _ZN51_$LT$u32$u20$as$u20$compiler_builtins..int..Int$GT$12wrapping_shl17hb1f90f0ed20f7d83E
00000000 g     F .text._ZN51_$LT$i32$u20$as$u20$compiler_builtins..int..Int$GT$12wrapping_sub17he25f1b067889a97cE	00000009 .hidden _ZN51_$LT$u32$u20$as$u20$compiler_builtins..int..Int$GT$12wrapping_sub17h8114c1452505a098E
00000000 g     F .text._ZN51_$LT$i32$u20$as$u20$compiler_builtins..int..Int$GT$13from_unsigned17h0e8b3c63411f983eE	00000005 .hidden _ZN51_$LT$u32$u20$as$u20$compiler_builtins..int..Int$GT$13from_unsigned17hae2bc456c0b8299dE
00000000 g     F .text._ZN51_$LT$i32$u20$as$u20$compiler_builtins..int..Int$GT$13leading_zeros17h53243ad0806b499cE	00000015 .hidden _ZN51_$LT$u32$u20$as$u20$compiler_builtins..int..Int$GT$13leading_zeros17hd8a632d79a56274eE
00000000 g     F .text._ZN51_$LT$u32$u20$as$u20$compiler_builtins..int..Int$GT$15overflowing_add17hb8f9b04481023107E	0000000c .hidden _ZN51_$LT$u32$u20$as$u20$compiler_builtins..int..Int$GT$15overflowing_add17hb8f9b04481023107E
00000000 g     F .text._ZN51_$LT$i32$u20$as$u20$compiler_builtins..int..Int$GT$13from_unsigned17h0e8b3c63411f983eE	00000005 .hidden _ZN51_$LT$u32$u20$as$u20$compiler_builtins..int..Int$GT$8unsigned17h7d7d9d5e64ce5f21E
00000000 g     F .text._ZN51_$LT$i32$u20$as$u20$compiler_builtins..int..Int$GT$9from_bool17h3a6ca0dafaeb5761E	00000006 .hidden _ZN51_$LT$u32$u20$as$u20$compiler_builtins..int..Int$GT$9from_bool17h83ce6100d9923423E
00000000 g     F .text._ZN51_$LT$u32$u20$as$u20$compiler_builtins..int..Int$GT$9max_value17h91772044ed69c716E	00000006 .hidden _ZN51_$LT$u32$u20$as$u20$compiler_builtins..int..Int$GT$9max_value17h91772044ed69c716E
00000000 g     F .text._ZN51_$LT$u32$u20$as$u20$compiler_builtins..int..Int$GT$9min_value17h5a9c7174a30b474bE	00000003 .hidden _ZN51_$LT$u32$u20$as$u20$compiler_builtins..int..Int$GT$9min_value17h5a9c7174a30b474bE
00000000 g     F .text._ZN51_$LT$u64$u20$as$u20$compiler_builtins..int..Int$GT$12aborting_div17hb4ffc6ef3e58a9d9E	00000036 .hidden _ZN51_$LT$u64$u20$as$u20$compiler_builtins..int..Int$GT$12aborting_div17hb4ffc6ef3e58a9d9E
00000000 g     F .text._ZN51_$LT$u64$u20$as$u20$compiler_builtins..int..Int$GT$12aborting_rem17h4f7a4312dac862a4E	00000036 .hidden _ZN51_$LT$u64$u20$as$u20$compiler_builtins..int..Int$GT$12aborting_rem17h4f7a4312dac862a4E
00000000 g     F .text._ZN51_$LT$u64$u20$as$u20$compiler_builtins..int..Int$GT$12extract_sign17hba56cb3983323ad3E	0000000b .hidden _ZN51_$LT$u64$u20$as$u20$compiler_builtins..int..Int$GT$12extract_sign17hba56cb3983323ad3E
00000000 g     F .text._ZN51_$LT$i64$u20$as$u20$compiler_builtins..int..Int$GT$12wrapping_add17h1106bebdb6c22f40E	00000011 .hidden _ZN51_$LT$u64$u20$as$u20$compiler_builtins..int..Int$GT$12wrapping_add17h74e839833cd86606E
00000000 g     F .text._ZN51_$LT$i64$u20$as$u20$compiler_builtins..int..Int$GT$12wrapping_mul17hf4692186c2ec1ca9E	0000001d .hidden _ZN51_$LT$u64$u20$as$u20$compiler_builtins..int..Int$GT$12wrapping_mul17hf881170d58604685E
00000000 g     F .text._ZN51_$LT$i64$u20$as$u20$compiler_builtins..int..Int$GT$12wrapping_shl17h2cd07fcddc31cee1E	0000001f .hidden _ZN51_$LT$u64$u20$as$u20$compiler_builtins..int..Int$GT$12wrapping_shl17h3cb7608ecc380234E
00000000 g     F .text._ZN51_$LT$i64$u20$as$u20$compiler_builtins..int..Int$GT$12wrapping_sub17hfdca7339274e0662E	00000011 .hidden _ZN51_$LT$u64$u20$as$u20$compiler_builtins..int..Int$GT$12wrapping_sub17hc989ff556ec0eccaE
00000000 g     F .text._ZN51_$LT$i64$u20$as$u20$compiler_builtins..int..Int$GT$13from_unsigned17h99baea81e309a5e2E	00000009 .hidden _ZN51_$LT$u64$u20$as$u20$compiler_builtins..int..Int$GT$13from_unsigned17h975c5bc3d752247fE
00000000 g     F .text._ZN51_$LT$i64$u20$as$u20$compiler_builtins..int..Int$GT$13leading_zeros17h698ef84823ebfc78E	00000024 .hidden _ZN51_$LT$u64$u20$as$u20$compiler_builtins..int..Int$GT$13leading_zeros17hba948919db89e139E
00000000 g     F .text._ZN51_$LT$u64$u20$as$u20$compiler_builtins..int..Int$GT$15overflowing_add17h6d0a95945ad2710fE	00000014 .hidden _ZN51_$LT$u64$u20$as$u20$compiler_builtins..int..Int$GT$15overflowing_add17h6d0a95945ad2710fE
00000000 g     F .text._ZN51_$LT$i64$u20$as$u20$compiler_builtins..int..Int$GT$13from_unsigned17h99baea81e309a5e2E	00000009 .hidden _ZN51_$LT$u64$u20$as$u20$compiler_builtins..int..Int$GT$8unsigned17h7c4b58c95d9fb973E
00000000 g     F .text._ZN51_$LT$i64$u20$as$u20$compiler_builtins..int..Int$GT$9from_bool17hebf08f33122d2eb1E	00000008 .hidden _ZN51_$LT$u64$u20$as$u20$compiler_builtins..int..Int$GT$9from_bool17hfbaf6be04fc154f6E
00000000 g     F .text._ZN51_$LT$u64$u20$as$u20$compiler_builtins..int..Int$GT$9max_value17h2b35f76e4aee3241E	0000000b .hidden _ZN51_$LT$u64$u20$as$u20$compiler_builtins..int..Int$GT$9max_value17h2b35f76e4aee3241E
00000000 g     F .text._ZN51_$LT$u64$u20$as$u20$compiler_builtins..int..Int$GT$9min_value17h46a18bec6be67b3eE	00000005 .hidden _ZN51_$LT$u64$u20$as$u20$compiler_builtins..int..Int$GT$9min_value17h46a18bec6be67b3eE
00000000 g     F .text._ZN52_$LT$i128$u20$as$u20$compiler_builtins..int..Int$GT$12aborting_div17h5b0f41f9a740d8b8E	000000ab .hidden _ZN52_$LT$i128$u20$as$u20$compiler_builtins..int..Int$GT$12aborting_div17h5b0f41f9a740d8b8E
00000000 g     F .text._ZN52_$LT$i128$u20$as$u20$compiler_builtins..int..Int$GT$12aborting_rem17h0b5a6fc74895f46dE	000000ab .hidden _ZN52_$LT$i128$u20$as$u20$compiler_builtins..int..Int$GT$12aborting_rem17h0b5a6fc74895f46dE
00000000 g     F .text._ZN52_$LT$i128$u20$as$u20$compiler_builtins..int..Int$GT$12extract_sign17h6bce5e5ff7704de3E	00000045 .hidden _ZN52_$LT$i128$u20$as$u20$compiler_builtins..int..Int$GT$12extract_sign17h6bce5e5ff7704de3E
00000000 g     F .text._ZN52_$LT$i128$u20$as$u20$compiler_builtins..int..Int$GT$12wrapping_add17h5f4da7ebabf25990E	00000036 .hidden _ZN52_$LT$i128$u20$as$u20$compiler_builtins..int..Int$GT$12wrapping_add17h5f4da7ebabf25990E
00000000 g     F .text._ZN52_$LT$i128$u20$as$u20$compiler_builtins..int..Int$GT$12wrapping_mul17hf0fab5ab87675ce3E	000000ab .hidden _ZN52_$LT$i128$u20$as$u20$compiler_builtins..int..Int$GT$12wrapping_mul17hf0fab5ab87675ce3E
00000000 g     F .text._ZN52_$LT$i128$u20$as$u20$compiler_builtins..int..Int$GT$12wrapping_shl17h066d56a198df57c5E	000000df .hidden _ZN52_$LT$i128$u20$as$u20$compiler_builtins..int..Int$GT$12wrapping_shl17h066d56a198df57c5E
00000000 g     F .text._ZN52_$LT$i128$u20$as$u20$compiler_builtins..int..Int$GT$12wrapping_sub17h29c2e694560abf0dE	00000036 .hidden _ZN52_$LT$i128$u20$as$u20$compiler_builtins..int..Int$GT$12wrapping_sub17h29c2e694560abf0dE
00000000 g     F .text._ZN52_$LT$i128$u20$as$u20$compiler_builtins..int..Int$GT$13from_unsigned17h5629267a7cb6a6b7E	00000026 .hidden _ZN52_$LT$i128$u20$as$u20$compiler_builtins..int..Int$GT$13from_unsigned17h5629267a7cb6a6b7E
00000000 g     F .text._ZN52_$LT$i128$u20$as$u20$compiler_builtins..int..Int$GT$13leading_zeros17h24f32627922fe7b8E	00000065 .hidden _ZN52_$LT$i128$u20$as$u20$compiler_builtins..int..Int$GT$13leading_zeros17h24f32627922fe7b8E
00000000 g     F .text._ZN52_$LT$i128$u20$as$u20$compiler_builtins..int..Int$GT$15overflowing_add17hb26010fbb2dfb418E	00000060 .hidden _ZN52_$LT$i128$u20$as$u20$compiler_builtins..int..Int$GT$15overflowing_add17hb26010fbb2dfb418E
00000000 g     F .text._ZN52_$LT$i128$u20$as$u20$compiler_builtins..int..Int$GT$13from_unsigned17h5629267a7cb6a6b7E	00000026 .hidden _ZN52_$LT$i128$u20$as$u20$compiler_builtins..int..Int$GT$8unsigned17hbc3de57002dedecdE
00000000 g     F .text._ZN52_$LT$i128$u20$as$u20$compiler_builtins..int..Int$GT$9from_bool17h89c788b238c3dde2E	00000023 .hidden _ZN52_$LT$i128$u20$as$u20$compiler_builtins..int..Int$GT$9from_bool17h89c788b238c3dde2E
00000000 g     F .text._ZN52_$LT$i128$u20$as$u20$compiler_builtins..int..Int$GT$9max_value17hb5d67d9c722169b4E	00000022 .hidden _ZN52_$LT$i128$u20$as$u20$compiler_builtins..int..Int$GT$9max_value17hb5d67d9c722169b4E
00000000 g     F .text._ZN52_$LT$i128$u20$as$u20$compiler_builtins..int..Int$GT$9min_value17h7fa6e45820682ae3E	00000022 .hidden _ZN52_$LT$i128$u20$as$u20$compiler_builtins..int..Int$GT$9min_value17h7fa6e45820682ae3E
00000000 g     F .text._ZN52_$LT$u128$u20$as$u20$compiler_builtins..int..Int$GT$12aborting_div17h7e0af92c6becea77E	00000082 .hidden _ZN52_$LT$u128$u20$as$u20$compiler_builtins..int..Int$GT$12aborting_div17h7e0af92c6becea77E
00000000 g     F .text._ZN52_$LT$u128$u20$as$u20$compiler_builtins..int..Int$GT$12aborting_rem17hb70ab9cc8700eb74E	00000082 .hidden _ZN52_$LT$u128$u20$as$u20$compiler_builtins..int..Int$GT$12aborting_rem17hb70ab9cc8700eb74E
00000000 g     F .text._ZN52_$LT$u128$u20$as$u20$compiler_builtins..int..Int$GT$12extract_sign17h8381c4d90f93a0b0E	0000002a .hidden _ZN52_$LT$u128$u20$as$u20$compiler_builtins..int..Int$GT$12extract_sign17h8381c4d90f93a0b0E
00000000 g     F .text._ZN52_$LT$i128$u20$as$u20$compiler_builtins..int..Int$GT$12wrapping_add17h5f4da7ebabf25990E	00000036 .hidden _ZN52_$LT$u128$u20$as$u20$compiler_builtins..int..Int$GT$12wrapping_add17h25623619bd3c5529E
00000000 g     F .text._ZN52_$LT$i128$u20$as$u20$compiler_builtins..int..Int$GT$12wrapping_mul17hf0fab5ab87675ce3E	000000ab .hidden _ZN52_$LT$u128$u20$as$u20$compiler_builtins..int..Int$GT$12wrapping_mul17h51d7addb2eebb5fcE
00000000 g     F .text._ZN52_$LT$i128$u20$as$u20$compiler_builtins..int..Int$GT$12wrapping_shl17h066d56a198df57c5E	000000df .hidden _ZN52_$LT$u128$u20$as$u20$compiler_builtins..int..Int$GT$12wrapping_shl17h54f5241212f23d98E
00000000 g     F .text._ZN52_$LT$i128$u20$as$u20$compiler_builtins..int..Int$GT$12wrapping_sub17h29c2e694560abf0dE	00000036 .hidden _ZN52_$LT$u128$u20$as$u20$compiler_builtins..int..Int$GT$12wrapping_sub17hdfe2aa4fa775d5bdE
00000000 g     F .text._ZN52_$LT$i128$u20$as$u20$compiler_builtins..int..Int$GT$13from_unsigned17h5629267a7cb6a6b7E	00000026 .hidden _ZN52_$LT$u128$u20$as$u20$compiler_builtins..int..Int$GT$13from_unsigned17hc3c5479bc4ce9eaaE
00000000 g     F .text._ZN52_$LT$i128$u20$as$u20$compiler_builtins..int..Int$GT$13leading_zeros17h24f32627922fe7b8E	00000065 .hidden _ZN52_$LT$u128$u20$as$u20$compiler_builtins..int..Int$GT$13leading_zeros17hfd032ce5424ade8aE
00000000 g     F .text._ZN52_$LT$u128$u20$as$u20$compiler_builtins..int..Int$GT$15overflowing_add17h2ccdecae29ff095eE	0000003a .hidden _ZN52_$LT$u128$u20$as$u20$compiler_builtins..int..Int$GT$15overflowing_add17h2ccdecae29ff095eE
00000000 g     F .text._ZN52_$LT$i128$u20$as$u20$compiler_builtins..int..Int$GT$13from_unsigned17h5629267a7cb6a6b7E	00000026 .hidden _ZN52_$LT$u128$u20$as$u20$compiler_builtins..int..Int$GT$8unsigned17h50ed66afad03485dE
00000000 g     F .text._ZN52_$LT$i128$u20$as$u20$compiler_builtins..int..Int$GT$9from_bool17h89c788b238c3dde2E	00000023 .hidden _ZN52_$LT$u128$u20$as$u20$compiler_builtins..int..Int$GT$9from_bool17h3dcbcf6840b091cfE
00000000 g     F .text._ZN52_$LT$u128$u20$as$u20$compiler_builtins..int..Int$GT$9max_value17h060aef10fe3f6ba0E	00000022 .hidden _ZN52_$LT$u128$u20$as$u20$compiler_builtins..int..Int$GT$9max_value17h060aef10fe3f6ba0E
00000000 g     F .text._ZN52_$LT$u128$u20$as$u20$compiler_builtins..int..Int$GT$9min_value17h910effb1c4d203b6E	00000022 .hidden _ZN52_$LT$u128$u20$as$u20$compiler_builtins..int..Int$GT$9min_value17h910effb1c4d203b6E
00000000 g     F .text._ZN55_$LT$u32$u20$as$u20$compiler_builtins..int..WideInt$GT$15wide_shift_left17h2f2424b08b26abf0E	00000030 .hidden _ZN55_$LT$u32$u20$as$u20$compiler_builtins..int..WideInt$GT$15wide_shift_left17h2f2424b08b26abf0E
00000000 g     F .text._ZN55_$LT$u32$u20$as$u20$compiler_builtins..int..WideInt$GT$28wide_shift_right_with_sticky17ha0e42125823aa7eaE	00000044 .hidden _ZN55_$LT$u32$u20$as$u20$compiler_builtins..int..WideInt$GT$28wide_shift_right_with_sticky17ha0e42125823aa7eaE
00000000 g     F .text._ZN55_$LT$u32$u20$as$u20$compiler_builtins..int..WideInt$GT$8wide_mul17hd5ff4679985015afE	0000000f .hidden _ZN55_$LT$u32$u20$as$u20$compiler_builtins..int..WideInt$GT$8wide_mul17hd5ff4679985015afE
00000000 g     F .text._ZN55_$LT$u64$u20$as$u20$compiler_builtins..int..WideInt$GT$15wide_shift_left17h83db02f80abcbe8fE	0000008e .hidden _ZN55_$LT$u64$u20$as$u20$compiler_builtins..int..WideInt$GT$15wide_shift_left17h83db02f80abcbe8fE
00000000 g     F .text._ZN55_$LT$u64$u20$as$u20$compiler_builtins..int..WideInt$GT$28wide_shift_right_with_sticky17h1926a83396d90c75E	00000118 .hidden _ZN55_$LT$u64$u20$as$u20$compiler_builtins..int..WideInt$GT$28wide_shift_right_with_sticky17h1926a83396d90c75E
00000000 g     F .text._ZN55_$LT$u64$u20$as$u20$compiler_builtins..int..WideInt$GT$8wide_mul17hcd9938264afdc7d6E	00000085 .hidden _ZN55_$LT$u64$u20$as$u20$compiler_builtins..int..WideInt$GT$8wide_mul17hcd9938264afdc7d6E
00000000 g     F .text._ZN56_$LT$i64$u20$as$u20$compiler_builtins..int..LargeInt$GT$10from_parts17hdb66b6a948b17302E	00000009 .hidden _ZN56_$LT$i64$u20$as$u20$compiler_builtins..int..LargeInt$GT$10from_parts17hdb66b6a948b17302E
00000000 g     F .text._ZN51_$LT$i32$u20$as$u20$compiler_builtins..int..Int$GT$13from_unsigned17h0e8b3c63411f983eE	00000005 .hidden _ZN56_$LT$i64$u20$as$u20$compiler_builtins..int..LargeInt$GT$11high_as_low17h2519a2ff671c15cdE
00000000 g     F .text._ZN51_$LT$i32$u20$as$u20$compiler_builtins..int..Int$GT$13from_unsigned17h0e8b3c63411f983eE	00000005 .hidden _ZN56_$LT$i64$u20$as$u20$compiler_builtins..int..LargeInt$GT$11low_as_high17h0b71aaf409a582f1E
00000000 g     F .text._ZN56_$LT$i64$u20$as$u20$compiler_builtins..int..LargeInt$GT$3low17h5468813d368b56f2E	00000005 .hidden _ZN56_$LT$i64$u20$as$u20$compiler_builtins..int..LargeInt$GT$3low17h5468813d368b56f2E
00000000 g     F .text._ZN56_$LT$i64$u20$as$u20$compiler_builtins..int..LargeInt$GT$4high17h2dae6fd1678435caE	00000005 .hidden _ZN56_$LT$i64$u20$as$u20$compiler_builtins..int..LargeInt$GT$4high17h2dae6fd1678435caE
00000000 g     F .text._ZN56_$LT$i64$u20$as$u20$compiler_builtins..int..LargeInt$GT$10from_parts17hdb66b6a948b17302E	00000009 .hidden _ZN56_$LT$u64$u20$as$u20$compiler_builtins..int..LargeInt$GT$10from_parts17hd09f9cec423280abE
00000000 g     F .text._ZN51_$LT$i32$u20$as$u20$compiler_builtins..int..Int$GT$13from_unsigned17h0e8b3c63411f983eE	00000005 .hidden _ZN56_$LT$u64$u20$as$u20$compiler_builtins..int..LargeInt$GT$11high_as_low17h770851653098dfa8E
00000000 g     F .text._ZN51_$LT$i32$u20$as$u20$compiler_builtins..int..Int$GT$13from_unsigned17h0e8b3c63411f983eE	00000005 .hidden _ZN56_$LT$u64$u20$as$u20$compiler_builtins..int..LargeInt$GT$11low_as_high17h35d03bb93c041cc8E
00000000 g     F .text._ZN56_$LT$i64$u20$as$u20$compiler_builtins..int..LargeInt$GT$3low17h5468813d368b56f2E	00000005 .hidden _ZN56_$LT$u64$u20$as$u20$compiler_builtins..int..LargeInt$GT$3low17hf66df91150cb9b09E
00000000 g     F .text._ZN56_$LT$i64$u20$as$u20$compiler_builtins..int..LargeInt$GT$4high17h2dae6fd1678435caE	00000005 .hidden _ZN56_$LT$u64$u20$as$u20$compiler_builtins..int..LargeInt$GT$4high17h5fd25809aeb85da3E
00000000 g     F .text._ZN57_$LT$i128$u20$as$u20$compiler_builtins..int..LargeInt$GT$10from_parts17heb22d33373719a1aE	00000026 .hidden _ZN57_$LT$i128$u20$as$u20$compiler_builtins..int..LargeInt$GT$10from_parts17heb22d33373719a1aE
00000000 g     F .text._ZN51_$LT$i64$u20$as$u20$compiler_builtins..int..Int$GT$13from_unsigned17h99baea81e309a5e2E	00000009 .hidden _ZN57_$LT$i128$u20$as$u20$compiler_builtins..int..LargeInt$GT$11high_as_low17hbcb1c31350bc4f4cE
00000000 g     F .text._ZN51_$LT$i64$u20$as$u20$compiler_builtins..int..Int$GT$13from_unsigned17h99baea81e309a5e2E	00000009 .hidden _ZN57_$LT$i128$u20$as$u20$compiler_builtins..int..LargeInt$GT$11low_as_high17hccf3dd3a344612e8E
00000000 g     F .text._ZN57_$LT$i128$u20$as$u20$compiler_builtins..int..LargeInt$GT$3low17h99b5aa2974c65b85E	00000009 .hidden _ZN57_$LT$i128$u20$as$u20$compiler_builtins..int..LargeInt$GT$3low17h99b5aa2974c65b85E
00000000 g     F .text._ZN57_$LT$i128$u20$as$u20$compiler_builtins..int..LargeInt$GT$4high17hd2440a9dd13db8d9E	00000009 .hidden _ZN57_$LT$i128$u20$as$u20$compiler_builtins..int..LargeInt$GT$4high17hd2440a9dd13db8d9E
00000000 g     F .text._ZN57_$LT$i128$u20$as$u20$compiler_builtins..int..LargeInt$GT$10from_parts17heb22d33373719a1aE	00000026 .hidden _ZN57_$LT$u128$u20$as$u20$compiler_builtins..int..LargeInt$GT$10from_parts17h482220922a77fca1E
00000000 g     F .text._ZN51_$LT$i64$u20$as$u20$compiler_builtins..int..Int$GT$13from_unsigned17h99baea81e309a5e2E	00000009 .hidden _ZN57_$LT$u128$u20$as$u20$compiler_builtins..int..LargeInt$GT$11high_as_low17hbf296b312383c5fbE
00000000 g     F .text._ZN51_$LT$i64$u20$as$u20$compiler_builtins..int..Int$GT$13from_unsigned17h99baea81e309a5e2E	00000009 .hidden _ZN57_$LT$u128$u20$as$u20$compiler_builtins..int..LargeInt$GT$11low_as_high17h6f02aaa6eae92b20E
00000000 g     F .text._ZN57_$LT$i128$u20$as$u20$compiler_builtins..int..LargeInt$GT$3low17h99b5aa2974c65b85E	00000009 .hidden _ZN57_$LT$u128$u20$as$u20$compiler_builtins..int..LargeInt$GT$3low17h3a044dca7ef1aaf5E
00000000 g     F .text._ZN57_$LT$i128$u20$as$u20$compiler_builtins..int..LargeInt$GT$4high17hd2440a9dd13db8d9E	00000009 .hidden _ZN57_$LT$u128$u20$as$u20$compiler_builtins..int..LargeInt$GT$4high17hc41d312b1c725260E
00000000 g     F .text._ZN51_$LT$i32$u20$as$u20$compiler_builtins..int..Int$GT$13from_unsigned17h0e8b3c63411f983eE	00000005 .hidden _ZN67_$LT$i32$u20$as$u20$compiler_builtins..int..CastInto$LT$i32$GT$$GT$4cast17h7f9b3cca7ea7d9f6E
00000000 g     F .text._ZN67_$LT$i32$u20$as$u20$compiler_builtins..int..CastInto$LT$i64$GT$$GT$4cast17he2be52630ae3c87fE	0000000a .hidden _ZN67_$LT$i32$u20$as$u20$compiler_builtins..int..CastInto$LT$i64$GT$$GT$4cast17he2be52630ae3c87fE
00000000 g     F .text._ZN51_$LT$i32$u20$as$u20$compiler_builtins..int..Int$GT$13from_unsigned17h0e8b3c63411f983eE	00000005 .hidden _ZN67_$LT$i32$u20$as$u20$compiler_builtins..int..CastInto$LT$u32$GT$$GT$4cast17hdcb3962d8d027a30E
00000000 g     F .text._ZN67_$LT$i32$u20$as$u20$compiler_builtins..int..CastInto$LT$i64$GT$$GT$4cast17he2be52630ae3c87fE	0000000a .hidden _ZN67_$LT$i32$u20$as$u20$compiler_builtins..int..CastInto$LT$u64$GT$$GT$4cast17h108ff9570b1ef529E
00000000 g     F .text._ZN56_$LT$i64$u20$as$u20$compiler_builtins..int..LargeInt$GT$3low17h5468813d368b56f2E	00000005 .hidden _ZN67_$LT$i64$u20$as$u20$compiler_builtins..int..CastInto$LT$i32$GT$$GT$4cast17h29255c544bed3f82E
00000000 g     F .text._ZN51_$LT$i64$u20$as$u20$compiler_builtins..int..Int$GT$13from_unsigned17h99baea81e309a5e2E	00000009 .hidden _ZN67_$LT$i64$u20$as$u20$compiler_builtins..int..CastInto$LT$i64$GT$$GT$4cast17haa198284d3b6f000E
00000000 g     F .text._ZN56_$LT$i64$u20$as$u20$compiler_builtins..int..LargeInt$GT$3low17h5468813d368b56f2E	00000005 .hidden _ZN67_$LT$i64$u20$as$u20$compiler_builtins..int..CastInto$LT$u32$GT$$GT$4cast17hec4fbc7c9de92b8eE
00000000 g     F .text._ZN51_$LT$i64$u20$as$u20$compiler_builtins..int..Int$GT$13from_unsigned17h99baea81e309a5e2E	00000009 .hidden _ZN67_$LT$i64$u20$as$u20$compiler_builtins..int..CastInto$LT$u64$GT$$GT$4cast17ha309147544aae94eE
00000000 g     F .text._ZN51_$LT$i32$u20$as$u20$compiler_builtins..int..Int$GT$13from_unsigned17h0e8b3c63411f983eE	00000005 .hidden _ZN67_$LT$u32$u20$as$u20$compiler_builtins..int..CastInto$LT$i32$GT$$GT$4cast17hcc81cba489357966E
00000000 g     F .text._ZN67_$LT$u32$u20$as$u20$compiler_builtins..int..CastInto$LT$i64$GT$$GT$4cast17hfecbae3861312225E	00000007 .hidden _ZN67_$LT$u32$u20$as$u20$compiler_builtins..int..CastInto$LT$i64$GT$$GT$4cast17hfecbae3861312225E
00000000 g     F .text._ZN51_$LT$i32$u20$as$u20$compiler_builtins..int..Int$GT$13from_unsigned17h0e8b3c63411f983eE	00000005 .hidden _ZN67_$LT$u32$u20$as$u20$compiler_builtins..int..CastInto$LT$u32$GT$$GT$4cast17h3114bd05016ac6cfE
00000000 g     F .text._ZN67_$LT$u32$u20$as$u20$compiler_builtins..int..CastInto$LT$i64$GT$$GT$4cast17hfecbae3861312225E	00000007 .hidden _ZN67_$LT$u32$u20$as$u20$compiler_builtins..int..CastInto$LT$u64$GT$$GT$4cast17haa16303a6f12c1f0E
00000000 g     F .text._ZN56_$LT$i64$u20$as$u20$compiler_builtins..int..LargeInt$GT$3low17h5468813d368b56f2E	00000005 .hidden _ZN67_$LT$u64$u20$as$u20$compiler_builtins..int..CastInto$LT$i32$GT$$GT$4cast17hc704ae03bb49694cE
00000000 g     F .text._ZN51_$LT$i64$u20$as$u20$compiler_builtins..int..Int$GT$13from_unsigned17h99baea81e309a5e2E	00000009 .hidden _ZN67_$LT$u64$u20$as$u20$compiler_builtins..int..CastInto$LT$i64$GT$$GT$4cast17hf7868212a2a279b5E
00000000 g     F .text._ZN56_$LT$i64$u20$as$u20$compiler_builtins..int..LargeInt$GT$3low17h5468813d368b56f2E	00000005 .hidden _ZN67_$LT$u64$u20$as$u20$compiler_builtins..int..CastInto$LT$u32$GT$$GT$4cast17h9202609920c05bd3E
00000000 g     F .text._ZN51_$LT$i64$u20$as$u20$compiler_builtins..int..Int$GT$13from_unsigned17h99baea81e309a5e2E	00000009 .hidden _ZN67_$LT$u64$u20$as$u20$compiler_builtins..int..CastInto$LT$u64$GT$$GT$4cast17h9f4ef0f372a7efe1E
00000000 g     F .text._ZN68_$LT$i128$u20$as$u20$compiler_builtins..int..CastInto$LT$i32$GT$$GT$4cast17h5382bce7c49c8692E	00000005 .hidden _ZN68_$LT$i128$u20$as$u20$compiler_builtins..int..CastInto$LT$i32$GT$$GT$4cast17h5382bce7c49c8692E
00000000 g     F .text._ZN57_$LT$i128$u20$as$u20$compiler_builtins..int..LargeInt$GT$3low17h99b5aa2974c65b85E	00000009 .hidden _ZN68_$LT$i128$u20$as$u20$compiler_builtins..int..CastInto$LT$i64$GT$$GT$4cast17h6552dd9c48cef546E
00000000 g     F .text._ZN68_$LT$i128$u20$as$u20$compiler_builtins..int..CastInto$LT$i32$GT$$GT$4cast17h5382bce7c49c8692E	00000005 .hidden _ZN68_$LT$i128$u20$as$u20$compiler_builtins..int..CastInto$LT$u32$GT$$GT$4cast17h78d97bcb730cadaeE
00000000 g     F .text._ZN57_$LT$i128$u20$as$u20$compiler_builtins..int..LargeInt$GT$3low17h99b5aa2974c65b85E	00000009 .hidden _ZN68_$LT$i128$u20$as$u20$compiler_builtins..int..CastInto$LT$u64$GT$$GT$4cast17h597af8f81c708e76E
00000000 g     F .text._ZN68_$LT$i32$u20$as$u20$compiler_builtins..int..CastInto$LT$i128$GT$$GT$4cast17hfefb89d1d52a2c28E	0000001b .hidden _ZN68_$LT$i32$u20$as$u20$compiler_builtins..int..CastInto$LT$i128$GT$$GT$4cast17hfefb89d1d52a2c28E
00000000 g     F .text._ZN68_$LT$i32$u20$as$u20$compiler_builtins..int..CastInto$LT$i128$GT$$GT$4cast17hfefb89d1d52a2c28E	0000001b .hidden _ZN68_$LT$i32$u20$as$u20$compiler_builtins..int..CastInto$LT$u128$GT$$GT$4cast17h4a95eab7cbef0ab7E
00000000 g     F .text._ZN68_$LT$i64$u20$as$u20$compiler_builtins..int..CastInto$LT$i128$GT$$GT$4cast17h53eeb0a0cca5d5b5E	00000021 .hidden _ZN68_$LT$i64$u20$as$u20$compiler_builtins..int..CastInto$LT$i128$GT$$GT$4cast17h53eeb0a0cca5d5b5E
00000000 g     F .text._ZN68_$LT$i64$u20$as$u20$compiler_builtins..int..CastInto$LT$i128$GT$$GT$4cast17h53eeb0a0cca5d5b5E	00000021 .hidden _ZN68_$LT$i64$u20$as$u20$compiler_builtins..int..CastInto$LT$u128$GT$$GT$4cast17ha812d5ebd07a656aE
00000000 g     F .text._ZN68_$LT$i128$u20$as$u20$compiler_builtins..int..CastInto$LT$i32$GT$$GT$4cast17h5382bce7c49c8692E	00000005 .hidden _ZN68_$LT$u128$u20$as$u20$compiler_builtins..int..CastInto$LT$i32$GT$$GT$4cast17h74dae861aabb3711E
00000000 g     F .text._ZN57_$LT$i128$u20$as$u20$compiler_builtins..int..LargeInt$GT$3low17h99b5aa2974c65b85E	00000009 .hidden _ZN68_$LT$u128$u20$as$u20$compiler_builtins..int..CastInto$LT$i64$GT$$GT$4cast17he7f97788767b4c45E
00000000 g     F .text._ZN68_$LT$i128$u20$as$u20$compiler_builtins..int..CastInto$LT$i32$GT$$GT$4cast17h5382bce7c49c8692E	00000005 .hidden _ZN68_$LT$u128$u20$as$u20$compiler_builtins..int..CastInto$LT$u32$GT$$GT$4cast17h7bf96343b95ba85bE
00000000 g     F .text._ZN57_$LT$i128$u20$as$u20$compiler_builtins..int..LargeInt$GT$3low17h99b5aa2974c65b85E	00000009 .hidden _ZN68_$LT$u128$u20$as$u20$compiler_builtins..int..CastInto$LT$u64$GT$$GT$4cast17hf33a934e891863a9E
00000000 g     F .text._ZN68_$LT$u32$u20$as$u20$compiler_builtins..int..CastInto$LT$i128$GT$$GT$4cast17h202e524f5bc95722E	00000022 .hidden _ZN68_$LT$u32$u20$as$u20$compiler_builtins..int..CastInto$LT$i128$GT$$GT$4cast17h202e524f5bc95722E
00000000 g     F .text._ZN68_$LT$u32$u20$as$u20$compiler_builtins..int..CastInto$LT$i128$GT$$GT$4cast17h202e524f5bc95722E	00000022 .hidden _ZN68_$LT$u32$u20$as$u20$compiler_builtins..int..CastInto$LT$u128$GT$$GT$4cast17ha1bca0a249741ef0E
00000000 g     F .text._ZN68_$LT$u64$u20$as$u20$compiler_builtins..int..CastInto$LT$i128$GT$$GT$4cast17h908cdaebb3a3a8c2E	00000022 .hidden _ZN68_$LT$u64$u20$as$u20$compiler_builtins..int..CastInto$LT$i128$GT$$GT$4cast17h908cdaebb3a3a8c2E
00000000 g     F .text._ZN68_$LT$u64$u20$as$u20$compiler_builtins..int..CastInto$LT$i128$GT$$GT$4cast17h908cdaebb3a3a8c2E	00000022 .hidden _ZN68_$LT$u64$u20$as$u20$compiler_builtins..int..CastInto$LT$u128$GT$$GT$4cast17h6c14d51bd6b26d06E
00000000 g     F .text._ZN52_$LT$i128$u20$as$u20$compiler_builtins..int..Int$GT$13from_unsigned17h5629267a7cb6a6b7E	00000026 .hidden _ZN69_$LT$i128$u20$as$u20$compiler_builtins..int..CastInto$LT$i128$GT$$GT$4cast17h2327687975ae6c77E
00000000 g     F .text._ZN52_$LT$i128$u20$as$u20$compiler_builtins..int..Int$GT$13from_unsigned17h5629267a7cb6a6b7E	00000026 .hidden _ZN69_$LT$i128$u20$as$u20$compiler_builtins..int..CastInto$LT$u128$GT$$GT$4cast17h66199cd937eadc17E
00000000 g     F .text._ZN51_$LT$i32$u20$as$u20$compiler_builtins..int..Int$GT$13from_unsigned17h0e8b3c63411f983eE	00000005 .hidden _ZN69_$LT$i32$u20$as$u20$compiler_builtins..int..CastInto$LT$isize$GT$$GT$4cast17hb6e202bfabb5990aE
00000000 g     F .text._ZN51_$LT$i32$u20$as$u20$compiler_builtins..int..Int$GT$13from_unsigned17h0e8b3c63411f983eE	00000005 .hidden _ZN69_$LT$i32$u20$as$u20$compiler_builtins..int..CastInto$LT$usize$GT$$GT$4cast17h97a8e72018cedfbfE
00000000 g     F .text._ZN56_$LT$i64$u20$as$u20$compiler_builtins..int..LargeInt$GT$3low17h5468813d368b56f2E	00000005 .hidden _ZN69_$LT$i64$u20$as$u20$compiler_builtins..int..CastInto$LT$isize$GT$$GT$4cast17h82f4263245438faaE
00000000 g     F .text._ZN56_$LT$i64$u20$as$u20$compiler_builtins..int..LargeInt$GT$3low17h5468813d368b56f2E	00000005 .hidden _ZN69_$LT$i64$u20$as$u20$compiler_builtins..int..CastInto$LT$usize$GT$$GT$4cast17h90481ba1e8cd7a89E
00000000 g     F .text._ZN52_$LT$i128$u20$as$u20$compiler_builtins..int..Int$GT$13from_unsigned17h5629267a7cb6a6b7E	00000026 .hidden _ZN69_$LT$u128$u20$as$u20$compiler_builtins..int..CastInto$LT$i128$GT$$GT$4cast17h352ce844b18e95bdE
00000000 g     F .text._ZN52_$LT$i128$u20$as$u20$compiler_builtins..int..Int$GT$13from_unsigned17h5629267a7cb6a6b7E	00000026 .hidden _ZN69_$LT$u128$u20$as$u20$compiler_builtins..int..CastInto$LT$u128$GT$$GT$4cast17ha763b0a303068e14E
00000000 g     F .text._ZN51_$LT$i32$u20$as$u20$compiler_builtins..int..Int$GT$13from_unsigned17h0e8b3c63411f983eE	00000005 .hidden _ZN69_$LT$u32$u20$as$u20$compiler_builtins..int..CastInto$LT$isize$GT$$GT$4cast17h709a1483c97bd53eE
00000000 g     F .text._ZN51_$LT$i32$u20$as$u20$compiler_builtins..int..Int$GT$13from_unsigned17h0e8b3c63411f983eE	00000005 .hidden _ZN69_$LT$u32$u20$as$u20$compiler_builtins..int..CastInto$LT$usize$GT$$GT$4cast17hc600b3e9fe60b1e0E
00000000 g     F .text._ZN56_$LT$i64$u20$as$u20$compiler_builtins..int..LargeInt$GT$3low17h5468813d368b56f2E	00000005 .hidden _ZN69_$LT$u64$u20$as$u20$compiler_builtins..int..CastInto$LT$isize$GT$$GT$4cast17h2bdaf20b4b6b2b41E
00000000 g     F .text._ZN56_$LT$i64$u20$as$u20$compiler_builtins..int..LargeInt$GT$3low17h5468813d368b56f2E	00000005 .hidden _ZN69_$LT$u64$u20$as$u20$compiler_builtins..int..CastInto$LT$usize$GT$$GT$4cast17h71d0c01624d582faE
00000000 g     F .text._ZN68_$LT$i128$u20$as$u20$compiler_builtins..int..CastInto$LT$i32$GT$$GT$4cast17h5382bce7c49c8692E	00000005 .hidden _ZN70_$LT$i128$u20$as$u20$compiler_builtins..int..CastInto$LT$isize$GT$$GT$4cast17h9aad59a0c3d78800E
00000000 g     F .text._ZN68_$LT$i128$u20$as$u20$compiler_builtins..int..CastInto$LT$i32$GT$$GT$4cast17h5382bce7c49c8692E	00000005 .hidden _ZN70_$LT$i128$u20$as$u20$compiler_builtins..int..CastInto$LT$usize$GT$$GT$4cast17h346e33e0dc1626aaE
00000000 g     F .text._ZN68_$LT$i128$u20$as$u20$compiler_builtins..int..CastInto$LT$i32$GT$$GT$4cast17h5382bce7c49c8692E	00000005 .hidden _ZN70_$LT$u128$u20$as$u20$compiler_builtins..int..CastInto$LT$isize$GT$$GT$4cast17hd4a01454e18fa4ddE
00000000 g     F .text._ZN68_$LT$i128$u20$as$u20$compiler_builtins..int..CastInto$LT$i32$GT$$GT$4cast17h5382bce7c49c8692E	00000005 .hidden _ZN70_$LT$u128$u20$as$u20$compiler_builtins..int..CastInto$LT$usize$GT$$GT$4cast17h2c8f84dfbb83e2c4E
00000000         *UND*	00000000 __divdi3
00000000         *UND*	00000000 __divti3
00000000         *UND*	00000000 __moddi3
00000000         *UND*	00000000 __modti3
00000000         *UND*	00000000 __udivdi3
00000000         *UND*	00000000 __udivti3
00000000         *UND*	00000000 __umoddi3
00000000         *UND*	00000000 __umodti3



compiler_builtins-0f031f8921b293bf.compiler_builtins.e6bpkb26-cgu.7.rcgu.o:     file format elf32-i386

SYMBOL TABLE:
00000000 l    df *ABS*	00000000 compiler_builtins.e6bpkb26-cgu.7
00000000 g     F .text._ZN17compiler_builtins3int5shift13rust_i128_shl17h1073e96a62262d77E	000000b0 .hidden _ZN17compiler_builtins3int5shift13rust_i128_shl17h1073e96a62262d77E
00000000 g     F .text._ZN17compiler_builtins3int5shift13rust_i128_shr17h32a50fea461d47bcE	000000dc .hidden _ZN17compiler_builtins3int5shift13rust_i128_shr17h32a50fea461d47bcE
00000000 g     F .text._ZN17compiler_builtins3int5shift13rust_i128_shl17h1073e96a62262d77E	000000b0 .hidden _ZN17compiler_builtins3int5shift13rust_u128_shl17h6534dc1d95871abbE
00000000 g     F .text._ZN17compiler_builtins3int5shift13rust_u128_shr17hacec87eaf48c93ccE	000000dd .hidden _ZN17compiler_builtins3int5shift13rust_u128_shr17hacec87eaf48c93ccE
00000000 g     F .text._ZN17compiler_builtins3int5shift14rust_i128_shlo17hb32af90df0a74d49E	000000c3 .hidden _ZN17compiler_builtins3int5shift14rust_i128_shlo17hb32af90df0a74d49E
00000000 g     F .text._ZN17compiler_builtins3int5shift14rust_i128_shro17h8b86d3f6e807d92bE	000000f4 .hidden _ZN17compiler_builtins3int5shift14rust_i128_shro17h8b86d3f6e807d92bE
00000000 g     F .text._ZN17compiler_builtins3int5shift14rust_i128_shlo17hb32af90df0a74d49E	000000c3 .hidden _ZN17compiler_builtins3int5shift14rust_u128_shlo17hcde2a3bda3274095E
00000000 g     F .text._ZN17compiler_builtins3int5shift14rust_u128_shro17ha33b2c33d30613bcE	000000fd .hidden _ZN17compiler_builtins3int5shift14rust_u128_shro17ha33b2c33d30613bcE
00000000 g     F .text.__ashldi3	0000003a .hidden __ashldi3
00000000 g     F .text._ZN17compiler_builtins3int5shift13rust_i128_shl17h1073e96a62262d77E	000000b0 .hidden __ashlti3
00000000 g     F .text.__ashrdi3	00000039 .hidden __ashrdi3
00000000 g     F .text._ZN17compiler_builtins3int5shift13rust_i128_shr17h32a50fea461d47bcE	000000dc .hidden __ashrti3
00000000 g     F .text.__lshrdi3	00000038 .hidden __lshrdi3
00000000 g     F .text._ZN17compiler_builtins3int5shift13rust_u128_shr17hacec87eaf48c93ccE	000000dd .hidden __lshrti3



compiler_builtins-0f031f8921b293bf.compiler_builtins.e6bpkb26-cgu.8.rcgu.o:     file format elf32-i386

SYMBOL TABLE:
00000000 l    df *ABS*	00000000 compiler_builtins.e6bpkb26-cgu.8
00000000 g     F .text.__eqdf2	00000082 .hidden __eqdf2
00000000 g     F .text.__eqsf2	00000056 .hidden __eqsf2
00000000 g     F .text.__gedf2	0000008e .hidden __gedf2
00000000 g     F .text.__gesf2	00000051 .hidden __gesf2
00000000 g     F .text.__gedf2	0000008e .hidden __gtdf2
00000000 g     F .text.__gesf2	00000051 .hidden __gtsf2
00000000 g     F .text.__eqdf2	00000082 .hidden __ledf2
00000000 g     F .text.__eqsf2	00000056 .hidden __lesf2
00000000 g     F .text.__eqdf2	00000082 .hidden __ltdf2
00000000 g     F .text.__eqsf2	00000056 .hidden __ltsf2
00000000 g     F .text.__eqdf2	00000082 .hidden __nedf2
00000000 g     F .text.__eqsf2	00000056 .hidden __nesf2
00000000 g     F .text.__unorddf2	00000037 .hidden __unorddf2
00000000 g     F .text.__unordsf2	00000026 .hidden __unordsf2



compiler_builtins-0f031f8921b293bf.compiler_builtins.e6bpkb26-cgu.9.rcgu.o:     file format elf32-i386

SYMBOL TABLE:
00000000 l    df *ABS*	00000000 compiler_builtins.e6bpkb26-cgu.9
00000000         *UND*	00000000 _GLOBAL_OFFSET_TABLE_
00000000 g     F .text._ZN17compiler_builtins3int4sdiv13rust_i128_div17h4bb958d59527fd6aE	000000e3 .hidden _ZN17compiler_builtins3int4sdiv13rust_i128_div17h4bb958d59527fd6aE
00000000 g     F .text._ZN17compiler_builtins3int4sdiv13rust_i128_rem17he73445878a2b09cfE	000000d1 .hidden _ZN17compiler_builtins3int4sdiv13rust_i128_rem17he73445878a2b09cfE
00000000 g     F .text.__divdi3	0000006a .hidden __divdi3
00000000 g     F .text.__divmoddi4	000000a5 .hidden __divmoddi4
00000000 g     F .text.__divmodsi4	00000047 .hidden __divmodsi4
00000000 g     F .text.__divsi3	00000032 .hidden __divsi3
00000000 g     F .text._ZN17compiler_builtins3int4sdiv13rust_i128_div17h4bb958d59527fd6aE	000000e3 .hidden __divti3
00000000 g     F .text.__moddi3	0000005b .hidden __moddi3
00000000 g     F .text.__modsi3	0000002d .hidden __modsi3
00000000 g     F .text._ZN17compiler_builtins3int4sdiv13rust_i128_rem17he73445878a2b09cfE	000000d1 .hidden __modti3
00000000         *UND*	00000000 __udivdi3
00000000         *UND*	00000000 __udivti3
00000000         *UND*	00000000 __umoddi3
00000000         *UND*	00000000 __umodti3


